0000                             ; z80dasm 1.1.6
0000                             ; command line: z80dasm -l -g 0x0900 -o TEC_maze_orig.z80 TEC_maze_orig.bin
4000                          .ORG   4000h   
4000   AF                     XOR   a   
4001   F5                     PUSH   af   
4002   06 08                  LD   b,008h   
4004   21 C5 43               LD   hl,ramData   
4007                L0907H:      
4007   77                     LD   (hl),a   
4008   23                     INC   hl   
4009   10 FC                  DJNZ   l0907h   
400B   36 1B                  LD   (hl),01bh   
400D   23                     INC   hl   
400E   36 3C                  LD   (hl),03ch   
4010   23                     INC   hl   
4011   36 90                  LD   (hl),090h   
4013   23                     INC   hl   
4014   36 08                  LD   (hl),008h   
4016   23                     INC   hl   
4017   36 01                  LD   (hl),001h   
4019   06 02                  LD   b,002h   
401B                L091BH:      
401B   23                     INC   hl   
401C   23                     INC   hl   
401D   36 A0                  LD   (hl),0a0h   
401F   10 FA                  DJNZ   l091bh   
4021   23                     INC   hl   
4022   36 01                  LD   (hl),001h   
4024   23                     INC   hl   
4025   36 C4                  LD   (hl),0c4h   
4027   23                     INC   hl   
4028   36 10                  LD   (hl),010h   
402A   23                     INC   hl   
402B   36 D9                  LD   (hl),0d9h   
402D   23                     INC   hl   
402E   36 01                  LD   (hl),001h   
4030   23                     INC   hl   
4031   36 04                  LD   (hl),004h   
4033   23                     INC   hl   
4034   36 1B                  LD   (hl),01bh   
4036   23                     INC   hl   
4037   36 23                  LD   (hl),023h   
4039   11 CD 44               LD   de,44CDH   ;start map location
403C                L093CH:      
403C   21 D6 43               LD   hl,screenData   
403F   7E                     LD   a,(hl)   
4040   D3 05                  OUT   (005h),a   
4042   CB 06                  RLC   (hl)   
4044   23                     INC   hl   
4045   3E CC                  LD   a,0cch   
4047   BE                     CP   (hl)   
4048   20 02                  JR   nz,l094ch   
404A   36 C4                  LD   (hl),0c4h   
404C                L094CH:      
404C   34                     INC   (hl)   
404D   6E                     LD   l,(hl)   
404E   7E                     LD   a,(hl)   
404F   D3 06                  OUT   (006h),a   
4051   2E D8                  LD   l,0d8h   
4053   46                     LD   b,(hl)   
4054   CB 0E                  RRC   (hl)   
4056   30 02                  JR   nc,l095ah   
4058   36 10                  LD   (hl),010h   
405A                L095AH:      
405A   3A D4 43               LD   a,(ramData+15)   
405D   FE 00                  CP   000h   
405F   28 04                  JR   z,l0965h   
4061   F1                     POP   af   
4062   EE 80                  XOR   080h   
4064   F5                     PUSH   af   
4065                L0965H:      
4065   80                     ADD   a,b   
4066   D3 01                  OUT   (001h),a   
4068   CB 4E                  BIT   1,(hl)   
406A   28 04                  JR   z,l0970h   
406C   3E 04                  LD   a,004h   
406E   18 0E                  JR   l097eh   
4070                L0970H:      
4070   23                     INC   hl   
4071   3E DD                  LD   a,0ddh   
4073   BE                     CP   (hl)   
4074   20 02                  JR   nz,l0978h   
4076   36 D9                  LD   (hl),0d9h   
4078                L0978H:      
4078   34                     INC   (hl)   
4079   6E                     LD   l,(hl)   
407A   6E                     LD   l,(hl)   
407B   26 43                  LD   h,043h   
407D   7E                     LD   a,(hl)   
407E                L097EH:      
407E   D3 02                  OUT   (002h),a   
4080   3A D2 43               LD   a,(ramData+13)   
4083   CD 8F 40               CALL   sub_098fh   
4086                L0986H:      
4086   10 FE                  DJNZ   l0986h   
4088   AF                     XOR   a   
4089   D3 02                  OUT   (002h),a   
408B   D3 06                  OUT   (006h),a   
408D   18 AD                  JR   l093ch   
408F                SUB_098FH:      
408F   F5                     PUSH   af   
4090   21 D0 43               LD   hl,ramData+11   
4093   AF                     XOR   a   
4094   BE                     CP   (hl)   
4095   28 11                  JR   z,l09a8h   
4097   2B                     DEC   hl   
4098   35                     DEC   (hl)   
4099   20 1B                  JR   nz,l09b6h   
409B   36 90                  LD   (hl),090h   
409D   23                     INC   hl   
409E   35                     DEC   (hl)   
409F   CD 13 41               CALL   sub_0a13h   
40A2   F1                     POP   af   
40A3   D6 40                  SUB   040h   
40A5   F5                     PUSH   af   
40A6   18 0E                  JR   l09b6h   
40A8                L09A8H:      
40A8   2E D5                  LD   l,0d5h   
40AA   BE                     CP   (hl)   
40AB   28 09                  JR   z,l09b6h   
40AD   DB 03                  IN   a,(003h)   
40AF   CB 77                  BIT   6,a   
40B1   20 03                  JR   nz,l09b6h   
40B3   CD FC 41               CALL   sub_0afch   
40B6                L09B6H:      
40B6   2E D1                  LD   l,0d1h   
40B8   35                     DEC   (hl)   
40B9   20 51                  JR   nz,l0a0ch   
40BB   2E D5                  LD   l,0d5h   
40BD   AF                     XOR   a   
40BE   BE                     CP   (hl)   
40BF   28 2B                  JR   z,l09ech   
40C1   2E D0                  LD   l,0d0h   
40C3   BE                     CP   (hl)   
40C4   20 06                  JR   nz,l09cch   
40C6   2E D3                  LD   l,0d3h   
40C8   36 A0                  LD   (hl),0a0h   
40CA   18 2D                  JR   l09f9h   
40CC                L09CCH:      
40CC   CD 0E 41               CALL   sub_0a0eh   
40CF   23                     INC   hl   
40D0   77                     LD   (hl),a   
40D1   6F                     LD   l,a   
40D2   26 42                  LD   h,042h   
40D4   7E                     LD   a,(hl)   
40D5   32 D2 43               LD   (ramData+13),a   
40D8   FE 90                  CP   090h   
40DA   20 04                  JR   nz,l09e0h   
40DC   3E 20                  LD   a,020h   
40DE   18 07                  JR   l09e7h   
40E0                L09E0H:      
40E0   3E 15                  LD   a,015h   
40E2   21 D3 43               LD   hl,ramData+14   
40E5   36 A0                  LD   (hl),0a0h   
40E7                L09E7H:      
40E7   32 D1 43               LD   (ramData+12),a   
40EA   18 20                  JR   l0a0ch   
40EC                L09ECH:      
40EC   CD 0E 41               CALL   sub_0a0eh   
40EF   FE FF                  CP   0ffh   
40F1   20 02                  JR   nz,l09f5h   
40F3   36 A2                  LD   (hl),0a2h   
40F5                L09F5H:      
40F5   6F                     LD   l,a   
40F6   26 42                  LD   h,042h   
40F8   7E                     LD   a,(hl)   
40F9                L09F9H:      
40F9   32 D2 43               LD   (ramData+13),a   
40FC   32 D4 43               LD   (ramData+15),a   
40FF   FE 00                  CP   000h   
4101   20 04                  JR   nz,l0a07h   
4103   3E 40                  LD   a,040h   
4105   18 02                  JR   l0a09h   
4107                L0A07H:      
4107   3E FF                  LD   a,0ffh   
4109                L0A09H:      
4109   32 D1 43               LD   (ramData+12),a   
410C                L0A0CH:      
410C   C1                     POP   bc   
410D   C9                     RET      
410E                SUB_0A0EH:      
410E   2E D3                  LD   l,0d3h   
4110   34                     INC   (hl)   
4111   7E                     LD   a,(hl)   
4112   C9                     RET      
4113                SUB_0A13H:      
4113   06 07                  LD   b,007h   
4115   2E CD                  LD   l,0cdh   
4117   6E                     LD   l,(hl)   
4118   26 41                  LD   h,041h   
411A   E9                     JP   (hl)   
411B   21 CB 43               LD   hl,ramData+6   
411E                L0A1EH:      
411E   7E                     LD   a,(hl)   
411F   23                     INC   hl   
4120   77                     LD   (hl),a   
4121   2B                     DEC   hl   
4122   2B                     DEC   hl   
4123   10 F9                  DJNZ   l0a1eh   
4125   CD 62 41               CALL   sub_0a62h   
4128   3D                     DEC   a   
4129   32 CE 43               LD   (ramData+9),a   
412C   2E C5                  LD   l,0c5h   
412E   71                     LD   (hl),c   
412F   C9                     RET      
4130   21 C6 43               LD   hl,ramData+1   
4133                L0A33H:      
4133   7E                     LD   a,(hl)   
4134   2B                     DEC   hl   
4135   77                     LD   (hl),a   
4136   23                     INC   hl   
4137   23                     INC   hl   
4138   10 F9                  DJNZ   l0a33h   
413A   CD 62 41               CALL   sub_0a62h   
413D   3C                     INC   a   
413E   32 CE 43               LD   (ramData+9),a   
4141   2E CC                  LD   l,0cch   
4143   71                     LD   (hl),c   
4144   FE A5                  CP   0a5h   
4146   C0                     RET   nz   
4147   21 D5 43               LD   hl,ramData+16   
414A   36 00                  LD   (hl),000h   
414C   2E D1                  LD   l,0d1h   
414E   36 01                  LD   (hl),001h   
4150   2E D3                  LD   l,0d3h   
4152   36 A2                  LD   (hl),0a2h   
4154   2E CD                  LD   l,0cdh   
4156   36 D4                  LD   (hl),0d4h   
4158   23                     INC   hl   
4159   36 9D                  LD   (hl),09dh   
415B   23                     INC   hl   
415C   36 01                  LD   (hl),001h   
415E   23                     INC   hl   
415F   36 64                  LD   (hl),064h   
4161   C9                     RET      
4162                SUB_0A62H:      
4162   3A CE 43               LD   a,(ramData+9)   
4165   6F                     LD   l,a   
4166   26 43                  LD   h,043h   
4168   4E                     LD   c,(hl)   
4169   C9                     RET      
416A   62                     LD   h,d   
416B   6B                     LD   l,e   
416C   D5                     PUSH   de   
416D   CD AA 41               CALL   sub_0aaah   
4170   E5                     PUSH   hl   
4171                L0A71H:      
4171   26 43                  LD   h,043h   
4173   69                     LD   l,c   
4174   CB 3E                  SRL   (hl)   
4176   E5                     PUSH   hl   
4177   CD B4 41               CALL   sub_0ab4h   
417A   E1                     POP   hl   
417B   28 02                  JR   z,l0a7fh   
417D   CB FE                  SET   7,(hl)   
417F                L0A7FH:      
417F   0C                     INC   c   
4180   14                     INC   d   
4181   10 EE                  DJNZ   l0a71h   
4183   E1                     POP   hl   
4184   7E                     LD   a,(hl)   
4185   C6 03                  ADD   a,003h   
4187   77                     LD   (hl),a   
4188   D1                     POP   de   
4189   C9                     RET      
418A   62                     LD   h,d   
418B   6B                     LD   l,e   
418C   D5                     PUSH   de   
418D   CD AA 41               CALL   sub_0aaah   
4190   E5                     PUSH   hl   
4191                L0A91H:      
4191   26 43                  LD   h,043h   
4193   69                     LD   l,c   
4194   CB 26                  SLA   (hl)   
4196   E5                     PUSH   hl   
4197   CD B4 41               CALL   sub_0ab4h   
419A   E1                     POP   hl   
419B   28 02                  JR   z,l0a9fh   
419D   CB C6                  SET   0,(hl)   
419F                L0A9FH:      
419F   0C                     INC   c   
41A0   14                     INC   d   
41A1   10 EE                  DJNZ   l0a91h   
41A3   E1                     POP   hl   
41A4   7E                     LD   a,(hl)   
41A5   D6 03                  SUB   003h   
41A7   77                     LD   (hl),a   
41A8   D1                     POP   de   
41A9   C9                     RET      
41AA                SUB_0AAAH:      
41AA   56                     LD   d,(hl)   
41AB   0E C5                  LD   c,0c5h   
41AD   21 CE 43               LD   hl,ramData+9   
41B0   5E                     LD   e,(hl)   
41B1   06 08                  LD   b,008h   
41B3   C9                     RET      
41B4                SUB_0AB4H:      
41B4   26 43                  LD   h,043h   
41B6   6A                     LD   l,d   
41B7   7E                     LD   a,(hl)   
41B8   26 41                  LD   h,041h   
41BA   6B                     LD   l,e   
41BB   E9                     JP   (hl)   
41BC   CB 47                  BIT   0,a   
41BE   C9                     RET      
41BF   CB 4F                  BIT   1,a   
41C1   C9                     RET      
41C2   CB 57                  BIT   2,a   
41C4   C9                     RET      
41C5   CB 5F                  BIT   3,a   
41C7   C9                     RET      
41C8   CB 67                  BIT   4,a   
41CA   C9                     RET      
41CB   CB 6F                  BIT   5,a   
41CD   C9                     RET      
41CE   CB 77                  BIT   6,a   
41D0   C9                     RET      
41D1   CB 7F                  BIT   7,a   
41D3   C9                     RET      
41D4   C5                     PUSH   bc   
41D5   D5                     PUSH   de   
41D6   11 C5 43               LD   de,ramData   
41D9   21 D0 43               LD   hl,ramData+11   
41DC   AF                     XOR   a   
41DD   BE                     CP   (hl)   
41DE   20 04                  JR   nz,l0ae4h   
41E0   2E 9D                  LD   l,09dh   
41E2   18 0E                  JR   l0af2h   
41E4                L0AE4H:      
41E4   2E CE                  LD   l,0ceh   
41E6   3E C5                  LD   a,0c5h   
41E8   BE                     CP   (hl)   
41E9   20 02                  JR   nz,l0aedh   
41EB   36 9D                  LD   (hl),09dh   
41ED                L0AEDH:      
41ED   3E 08                  LD   a,008h   
41EF   86                     ADD   a,(hl)   
41F0   77                     LD   (hl),a   
41F1   6E                     LD   l,(hl)   
41F2                L0AF2H:      
41F2   26 43                  LD   h,043h   
41F4   01 08 00               LD   bc,00008h   
41F7   ED B0                  LDIR      
41F9   C1                     POP   bc   
41FA   D1                     POP   de   
41FB   C9                     RET      
41FC                SUB_0AFCH:      
41FC   DB 00                  IN   a,(000h)   
41FE   E6 1F                  AND   01fh   
4200   FE 04                  CP   004h   
4202   20 20                  JR   nz,l0b24h   
4204   21 C5 43               LD   hl,ramData   
4207   3E 24                  LD   a,024h   
4209   BE                     CP   (hl)   
420A   C0                     RET   nz   
420B   21 CD 43               LD   hl,ramData+8   
420E   36 1B                  LD   (hl),01bh   
4210   1B                     DEC   de   
4211   1A                     LD   a,(de)   
4212   C6 07                  ADD   a,007h   
4214   23                     INC   hl   
4215   77                     LD   (hl),a   
4216   2E DB                  LD   l,0dbh   
4218   35                     DEC   (hl)   
4219   3E 00                  LD   a,000h   
421B   BE                     CP   (hl)   
421C   20 7B                  JR   nz,l0b99h   
421E   36 1A                  LD   (hl),01ah   
4220   2B                     DEC   hl   
4221   35                     DEC   (hl)   
4222   18 75                  JR   l0b99h   
4224                L0B24H:      
4224   FE 01                  CP   001h   
4226   20 27                  JR   nz,l0b4fh   
4228   21 C8 43               LD   hl,ramData+3   
422B   AF                     XOR   a   
422C   BE                     CP   (hl)   
422D   28 04                  JR   z,l0b33h   
422F   3E 20                  LD   a,020h   
4231   BE                     CP   (hl)   
4232   C0                     RET   nz   
4233                L0B33H:      
4233   21 1E 00               LD   hl,0001eh   
4236   19                     ADD   hl,de   
4237   54                     LD   d,h   
4238   5D                     LD   e,l   
4239   21 CD 43               LD   hl,ramData+8   
423C   36 8A                  LD   (hl),08ah   
423E   23                     INC   hl   
423F   36 D1                  LD   (hl),0d1h   
4241   2E DD                  LD   l,0ddh   
4243   34                     INC   (hl)   
4244   3E 25                  LD   a,025h   
4246   BE                     CP   (hl)   
4247   20 50                  JR   nz,l0b99h   
4249   36 1B                  LD   (hl),01bh   
424B   2B                     DEC   hl   
424C   34                     INC   (hl)   
424D   18 4A                  JR   l0b99h   
424F                L0B4FH:      
424F   FE 06                  CP   006h   
4251   20 1E                  JR   nz,l0b71h   
4253   21 CC 43               LD   hl,ramData+7   
4256   3E 24                  LD   a,024h   
4258   BE                     CP   (hl)   
4259   C0                     RET   nz   
425A   21 CD 43               LD   hl,ramData+8   
425D   36 30                  LD   (hl),030h   
425F   13                     INC   de   
4260   1A                     LD   a,(de)   
4261   23                     INC   hl   
4262   77                     LD   (hl),a   
4263   2E DB                  LD   l,0dbh   
4265   34                     INC   (hl)   
4266   3E 1B                  LD   a,01bh   
4268   BE                     CP   (hl)   
4269   20 2E                  JR   nz,l0b99h   
426B   36 01                  LD   (hl),001h   
426D   2B                     DEC   hl   
426E   34                     INC   (hl)   
426F   18 28                  JR   l0b99h   
4271                L0B71H:      
4271   FE 09                  CP   009h   
4273   C0                     RET   nz   
4274   21 C8 43               LD   hl,ramData+3   
4277   AF                     XOR   a   
4278   BE                     CP   (hl)   
4279   28 04                  JR   z,l0b7fh   
427B   3E 04                  LD   a,004h   
427D   BE                     CP   (hl)   
427E   C0                     RET   nz   
427F                L0B7FH:      
427F   21 E2 FF               LD   hl,0ffe2h   
4282   19                     ADD   hl,de   
4283   54                     LD   d,h   
4284   5D                     LD   e,l   
4285   21 CD 43               LD   hl,ramData+8   
4288   36 6A                  LD   (hl),06ah   
428A   23                     INC   hl   
428B   36 BC                  LD   (hl),0bch   
428D   2E DD                  LD   l,0ddh   
428F   35                     DEC   (hl)   
4290   3E 1A                  LD   a,01ah   
4292   BE                     CP   (hl)   
4293   20 04                  JR   nz,l0b99h   
4295   36 24                  LD   (hl),024h   
4297   2B                     DEC   hl   
4298   35                     DEC   (hl)   
4299                L0B99H:      
4299   2E D0                  LD   l,0d0h   
429B   36 08                  LD   (hl),008h   
429D   23                     INC   hl   
429E   36 01                  LD   (hl),001h   
42A0   C9                     RET      
42A1                DATA1:       
42A1   90 20 50 50 00 60 60 00 80 00 80 80 00 90 00 80 DB   90H,20H,50H,50H,00H,60H,60H,00H,80H,00H,80H,80H,00H,90H,00H,80H   
42B1   80 00 90 00 80 80 00 50 50 00 60 60 00 80 00 80 DB   80H,00H,90H,00H,80H,80H,00H,50H,50H,00H,60H,60H,00H,80H,00H,80H   
42C1   80 00 60 60 00 4E 4E 4E 00 00 50 50 00 60 60 00 DB   80H,00H,60H,60H,00H,4EH,4EH,4EH,00H,00H,50H,50H,00H,60H,60H,00H   
42D1   80 00 80 80 00 90 00 80 80 00 90 00 80 80 00 50 DB   80H,00H,80H,80H,00H,90H,00H,80H,80H,00H,90H,00H,80H,80H,00H,50H   
42E1   50 60 60 80 80 00 90 00 90 90 00 9A 9A 80 80 80 DB   50H,60H,60H,80H,80H,00H,90H,00H,90H,90H,00H,9AH,9AH,80H,80H,80H   
42F1   80 00 00 00 00 00 00 00 00 00 00 00 00 00 00 00 DB   80H,00H,00H,00H,00H,00H,00H,00H,00H,00H,00H,00H,00H,00H,00H,00H   
4301                SEGDATA:      
4301   6F E6 C3 EC C7 47 E3   DB   6FH,0E6H,0C3H,0ECH,0C7H,47H,0E3H   ;ABCDEFG
4308   66 28 E8 4E C2 65 6B   DB   66H,28H,0E8H,4EH,0C2H,65H,6BH   ;HIJKLMN
430F   EB 4F 3F 4B A7 46 EA   DB   0EBH,4FH,3FH,4BH,0A7H,46H,0EAH   ;OPQRSTU
4316   E0 E1 A4 AE C9         DB   0E0H,0E1H,0A4H,0AEH,0C9H   ;VWXYZ
431B   EB 28 CD AD 2E A7 E7   DB   0EBH,28H,0CDH,0ADH,2EH,0A7H,0E7H   ;0123456
4322   29 EF 2F               DB   29H,0EFH,2FH   ;789
4325                MAPDATA:      
4325   24 24 E7 00 00 E7 24 24 DB   24H,24H,0E7H,00H,00H,0E7H,24H,24H   ;Cross          25
432D   00 00 FF 00 00 E7 24 24 DB   00H,00H,0FFH,00H,00H,0E7H,24H,24H   ;Right T        2D
4335   24 24 E7 00 00 FF 00 00 DB   24H,24H,0E7H,00H,00H,0FFH,00H,00H   ;Left T         35
433D   24 24 E4 04 04 E4 24 24 DB   24H,24H,0E4H,04H,04H,0E4H,24H,24H   ;Up T           3D
4345   24 24 27 20 20 27 24 24 DB   24H,24H,27H,20H,20H,27H,24H,24H   ;Down T         45
434D   24 24 24 66 66 24 24 24 DB   24H,24H,24H,66H,66H,24H,24H,24H   ;Horizontal     4D
4355   00 18 FF 00 00 FF 18 00 DB   00H,18H,0FFH,00H,00H,0FFH,18H,00H   ;Vertical       55
435D   00 00 3F 20 20 27 24 24 DB   00H,00H,3FH,20H,20H,27H,24H,24H   ;Right Down     5D
4365   24 24 27 20 20 3F 00 00 DB   24H,24H,27H,20H,20H,3FH,00H,00H   ;Left Down      65
436D   24 24 E4 04 04 FC 00 00 DB   24H,24H,0E4H,04H,04H,0FCH,00H,00H   ;Left Up        6D
4375   00 00 FC 04 04 E4 24 24 DB   00H,00H,0FCH,04H,04H,0E4H,24H,24H   ;Right Up       75
437D   00 00 3F 20 20 3F 00 00 DB   00H,00H,3FH,20H,20H,3FH,00H,00H   ;Up Dead End    7D
4385   00 00 FC 04 04 FC 00 00 DB   00H,00H,0FCH,04H,04H,0FCH,00H,00H   ;Down Dead End  85
438D   00 00 3C 24 24 24 24 24 DB   00H,00H,3CH,24H,24H,24H,24H,24H   ;Right Dead End 8D
4395   24 24 24 24 24 3C 00 00 DB   24H,24H,24H,24H,24H,3CH,00H,00H   ;Left Dead End  95
439D   24 E7 81 81 81 81 81 FF DB   24H,0E7H,81H,81H,81H,81H,81H,0FFH   ;End Room Right 9D
43A5   00 00 00 18 18 00 00 00 DB   00H,00H,00H,18H,18H,00H,00H,00H   ;Center Dot             A5
43AD   00 00 3C 24 24 3C 00 00 DB   00H,00H,3CH,24H,24H,3CH,00H,00H   ;Center Square Small    AD
43B5   00 7E 42 42 42 42 7E 00 DB   00H,7EH,42H,42H,42H,42H,7EH,00H   ;Center Square Medium   B5
43BD   FF 81 81 81 81 81 81 FF DB   0FFH,81H,81H,81H,81H,81H,81H,0FFH   ;Center Square Large    BD
43C5                RAMDATA:      
43C5                          DS   17   ;17 bytes for ram data
43D6                SCREENDATA:      
43D6                          DS   8   ;8 bytes for screen data
43DE                             ;30x27 Grid, Goes from top left to top right then down.  Each row is two db lines
43DE                             ;Value is the lower byte of the address of the mapData.
43DE                MAPJUMPTABLE:      
43DE   8D 4D 65 5D 65 5D 45 4D 4D 45 4D 45 4D 65 5D DB   8DH,4DH,65H,5DH,65H,5DH,45H,4DH,4DH,45H,4DH,45H,4DH,65H,5DH   
43ED   95 8D 4D 45 45 9D 5D 4D 65 5D 4D 95 5D 95 7D DB   95H,8DH,4DH,45H,45H,9DH,5DH,4DH,65H,5DH,4DH,95H,5DH,95H,7DH   
43FC   5D 95 55 85 75 6D 55 5D 65 55 8D 6D 7D 75 25 DB   5DH,95H,55H,85H,75H,6DH,55H,5DH,65H,55H,8DH,6DH,7DH,75H,25H   
440B   4D 45 4D 6D 75 4D 6D 5D 6D 75 4D 65 55 7D 55 DB   4DH,45H,4DH,6DH,75H,4DH,6DH,5DH,6DH,75H,4DH,65H,55H,7DH,55H   
441A   2D 4D 6D 8D 65 7D 85 85 75 3D 65 7D 75 4D 6D DB   2DH,4DH,6DH,8DH,65H,7DH,85H,85H,75H,3DH,65H,7DH,75H,4DH,6DH   
4429   7D 85 7D 7D 5D 4D 4D 35 8D 4D 65 55 55 2D 6D DB   7DH,85H,7DH,7DH,5DH,4DH,4DH,35H,8DH,4DH,65H,55H,55H,2DH,6DH   
4438   75 65 8D 65 55 75 4D 4D 45 65 55 55 8D 45 4D DB   75H,65H,8DH,65H,55H,75H,4DH,4DH,45H,65H,55H,55H,8DH,45H,4DH   
4447   3D 65 55 55 55 7D 7D 2D 4D 95 2D 6D 55 55 7D DB   3DH,65H,55H,55H,55H,7DH,7DH,2DH,4DH,95H,2DH,6DH,55H,55H,7DH   
4456   5D 35 7D 55 55 5D 95 7D 85 75 3D 3D 4D 35 8D DB   5DH,35H,7DH,55H,55H,5DH,95H,7DH,85H,75H,3DH,3DH,4DH,35H,8DH   
4465   65 2D 6D 55 2D 3D 6D 75 95 7D 75 65 55 75 35 DB   65H,2DH,6DH,55H,2DH,3DH,6DH,75H,95H,7DH,75H,65H,55H,75H,35H   
4474   55 85 75 35 75 3D 65 75 4D 45 95 8D 4D 6D 5D DB   55H,85H,75H,35H,75H,3DH,65H,75H,4DH,45H,95H,8DH,4DH,6DH,5DH   
4483   6D 55 8D 35 85 5D 65 8D 65 75 4D 35 2D 65 55 DB   6DH,55H,8DH,35H,85H,5DH,65H,8DH,65H,75H,4DH,35H,2DH,65H,55H   
4492   75 65 8D 25 4D 95 2D 4D 4D 3D 4D 4D 45 45 25 DB   75H,65H,8DH,25H,4DH,95H,2DH,4DH,4DH,3DH,4DH,4DH,45H,45H,25H   
44A1   45 6D 5D 6D 5D 35 85 7D 75 4D 65 55 55 55 55 DB   45H,6DH,5DH,6DH,5DH,35H,85H,7DH,75H,4DH,65H,55H,55H,55H,55H   
44B0   5D 3D 4D 3D 4D 4D 6D 5D 45 4D 45 65 55 55 55 DB   5DH,3DH,4DH,3DH,4DH,4DH,6DH,5DH,45H,4DH,45H,65H,55H,55H,55H   
44BF   2D 65 55 5D 35 85 8D 3D 4D 45 25 25 35 2D 35 DB   2DH,65H,55H,5DH,35H,85H,8DH,3DH,4DH,45H,25H,25H,35H,2DH,35H   
44CE   85 8D 45 4D 45 4D 45 3D 6D 8D 35 55 75 35 2D DB   85H,8DH,45H,4DH,45H,4DH,45H,3DH,6DH,8DH,35H,55H,75H,35H,2DH   
44DD   35 75 35 55 85 7D 5D 95 7D 55 55 55 2D 35 55 DB   35H,75H,35H,55H,85H,7DH,5DH,95H,7DH,55H,55H,55H,2DH,35H,55H   
44EC   8D 4D 25 4D 25 4D 3D 95 5D 65 75 3D 4D 6D 55 DB   8DH,4DH,25H,4DH,25H,4DH,3DH,95H,5DH,65H,75H,3DH,4DH,6DH,55H   
44FB   2D 45 6D 2D 65 55 2D 65 55 2D 6D 55 55 55 55 DB   2DH,45H,6DH,2DH,65H,55H,2DH,65H,55H,2DH,6DH,55H,55H,55H,55H   
450A   5D 65 55 5D 3D 65 5D 4D 3D 35 8D 4D 65 7D 85 DB   5DH,65H,55H,5DH,3DH,65H,5DH,4DH,3DH,35H,8DH,4DH,65H,7DH,85H   
4519   85 75 95 55 2D 6D 75 25 3D 6D 8D 3D 35 2D 35 DB   85H,75H,95H,55H,2DH,6DH,75H,25H,3DH,6DH,8DH,3DH,35H,2DH,35H   
4528   85 75 35 85 8D 6D 55 7D 7D 75 45 4D 3D 35 7D DB   85H,75H,35H,85H,8DH,6DH,55H,7DH,7DH,75H,45H,4DH,3DH,35H,7DH   
4537   7D 8D 65 55 55 5D 95 55 5D 4D 4D 65 75 35 55 DB   7DH,8DH,65H,55H,55H,5DH,95H,55H,5DH,4DH,4DH,65H,75H,35H,55H   
4546   7D 7D 75 4D 45 4D 6D 55 75 45 35 5D 95 55 2D DB   7DH,7DH,75H,4DH,45H,4DH,6DH,55H,75H,45H,35H,5DH,95H,55H,2DH   
4555   6D 5D 3D 35 85 55 5D 35 85 8D 4D 35 8D 3D 6D DB   6DH,5DH,3DH,35H,85H,55H,5DH,35H,85H,8DH,4DH,35H,8DH,3DH,6DH   
4564   55 75 45 4D 35 7D 8D 3D 4D 3D 25 3D 4D 6D 55 DB   55H,75H,45H,4DH,35H,7DH,8DH,3DH,4DH,3DH,25H,3DH,4DH,6DH,55H   
4573   7D 2D 45 3D 45 6D 85 75 4D 45 65 2D 45 65 7D DB   7DH,2DH,45H,3DH,45H,6DH,85H,75H,4DH,45H,65H,2DH,45H,65H,7DH   
4582   75 65 85 7D 85 55 7D 8D 4D 65 55 7D 7D 7D 55 DB   75H,65H,85H,7DH,85H,55H,7DH,8DH,4DH,65H,55H,7DH,7DH,7DH,55H   
4591   75 3D 25 4D 35 8D 65 8D 4D 35 55 55 2D 25 35 DB   75H,3DH,25H,4DH,35H,8DH,65H,8DH,4DH,35H,55H,55H,2DH,25H,35H   
45A0   5D 6D 7D 2D 4D 25 3D 45 4D 35 55 55 55 75 3D DB   5DH,6DH,7DH,2DH,4DH,25H,3DH,45H,4DH,35H,55H,55H,55H,75H,3DH   
45AF   65 5D 25 4D 25 4D 25 45 95 55 75 6D 55 2D 35 DB   65H,5DH,25H,4DH,25H,4DH,25H,45H,95H,55H,75H,6DH,55H,2DH,35H   
45BE   55 8D 35 2D 4D 3D 4D 3D 4D 3D 35 2D 25 4D 4D DB   55H,8DH,35H,2DH,4DH,3DH,4DH,3DH,4DH,3DH,35H,2DH,25H,4DH,4DH   
45CD   35 2D 25 45 35 7D 55 85 7D 55 8D 65 55 85 55 DB   35H,2DH,25H,45H,35H,7DH,55H,85H,7DH,55H,8DH,65H,55H,85H,55H   
45DC   75 4D 35 55 8D 4D 65 5D 4D 65 75 3D 6D 8D 4D DB   75H,4DH,35H,55H,8DH,4DH,65H,5DH,4DH,65H,75H,3DH,6DH,8DH,4DH   
45EB   6D 55 55 2D 6D 55 75 45 6D 75 4D 35 75 95 85 DB   6DH,55H,55H,2DH,6DH,55H,75H,45H,6DH,75H,4DH,35H,75H,95H,85H   
45FA   5D 95 55 75 4D 45 6D 75 45 25 65 8D 4D 45 65 DB   5DH,95H,55H,75H,4DH,45H,6DH,75H,45H,25H,65H,8DH,4DH,45H,65H   
4609   5D 3D 35 75 95 2D 45 35 7D 8D 65 55 8D 45 95 DB   5DH,3DH,35H,75H,95H,2DH,45H,35H,7DH,8DH,65H,55H,8DH,45H,95H   
4618   2D 65 2D 45 4D 6D 7D 7D 55 85 75 45 4D 35 2D DB   2DH,65H,2DH,45H,4DH,6DH,7DH,7DH,55H,85H,75H,45H,4DH,35H,2DH   
4627   25 4D 25 4D 65 55 55 55 75 65 2D 6D 5D 3D 65 DB   25H,4DH,25H,4DH,65H,55H,55H,55H,75H,65H,2DH,6DH,5DH,3DH,65H   
4636   75 35 55 75 45 45 35 75 25 4D 45 6D 7D 55 2D DB   75H,35H,55H,75H,45H,45H,35H,75H,25H,4DH,45H,6DH,7DH,55H,2DH   
4645   35 5D 6D 5D 35 85 75 3D 65 2D 35 5D 25 4D 35 DB   35H,5DH,6DH,5DH,35H,85H,75H,3DH,65H,2DH,35H,5DH,25H,4DH,35H   
4654   7D 55 75 4D 3D 35 2D 95 2D 45 35 7D 2D 35 55 DB   7DH,55H,75H,4DH,3DH,35H,2DH,95H,2DH,45H,35H,7DH,2DH,35H,55H   
4663   55 55 5D 6D 55 8D 65 7D 55 85 55 55 75 65 55 DB   55H,55H,5DH,6DH,55H,8DH,65H,7DH,55H,85H,55H,55H,75H,65H,55H   
4672   75 25 95 8D 65 55 75 45 35 2D 6D 55 2D 25 3D DB   75H,25H,95H,8DH,65H,55H,75H,45H,35H,2DH,6DH,55H,2DH,25H,3DH   
4681   25 35 55 5D 35 7D 55 75 25 4D 35 55 5D 35 85 DB   25H,35H,55H,5DH,35H,7DH,55H,75H,25H,4DH,35H,55H,5DH,35H,85H   
4690   8D 3D 45 65 75 3D 4D 3D 6D 85 5D 3D 6D 85 5D DB   8DH,3DH,45H,65H,75H,3DH,4DH,3DH,6DH,85H,5DH,3DH,6DH,85H,5DH   
469F   35 2D 35 75 35 55 75 65 75 4D 3D 35 85 75 95 DB   35H,2DH,35H,75H,35H,55H,75H,65H,75H,4DH,3DH,35H,85H,75H,95H   
46AE   5D 45 3D 25 4D 4D 45 4D 65 8D 6D 5D 45 4D 35 DB   5DH,45H,3DH,25H,4DH,4DH,45H,4DH,65H,8DH,6DH,5DH,45H,4DH,35H   
46BD   55 55 75 65 55 2D 4D 3D 4D 4D 65 85 5D 95 7D DB   55H,55H,75H,65H,55H,2DH,4DH,3DH,4DH,4DH,65H,85H,5DH,95H,7DH   
46CC   55 75 4D 3D 4D 4D 3D 65 75 4D 4D 25 6D 5D 6D DB   55H,75H,4DH,3DH,4DH,4DH,3DH,65H,75H,4DH,4DH,25H,6DH,5DH,6DH   
46DB   75 35 8D 6D 85 55 5D 4D 4D 95 75 4D 3D 4D 6D DB   75H,35H,8DH,6DH,85H,55H,5DH,4DH,4DH,95H,75H,4DH,3DH,4DH,6DH   
46EA   75 4D 4D 95 8D 4D 4D 3D 4D 4D 95 85 8D 3D 4D DB   75H,4DH,4DH,95H,8DH,4DH,4DH,3DH,4DH,4DH,95H,85H,8DH,3DH,4DH   
46F9   95 75 4D 4D 4D 3D 3D 4D 4D 4D 4D 4D 4D 4D 95 DB   95H,75H,4DH,4DH,4DH,3DH,3DH,4DH,4DH,4DH,4DH,4DH,4DH,4DH,95H   
4708                          .END      
4708                          .BINFROM   4000H   
4708                          .BINTO   46FEH   


L0907H:             4007 DEFINED AT LINE 10
                    > USED AT LINE 13
L091BH:             401B DEFINED AT LINE 24
                    > USED AT LINE 28
L093CH:             403C DEFINED AT LINE 46
                    > USED AT LINE 101
L094CH:             404C DEFINED AT LINE 56
                    > USED AT LINE 54
L095AH:             405A DEFINED AT LINE 66
                    > USED AT LINE 64
L0965H:             4065 DEFINED AT LINE 73
                    > USED AT LINE 69
L0970H:             4070 DEFINED AT LINE 80
                    > USED AT LINE 77
L0978H:             4078 DEFINED AT LINE 86
                    > USED AT LINE 84
L097EH:             407E DEFINED AT LINE 92
                    > USED AT LINE 79
L0986H:             4086 DEFINED AT LINE 96
                    > USED AT LINE 97
SUB_098FH:          408F DEFINED AT LINE 102
                    > USED AT LINE 95
L09A8H:             40A8 DEFINED AT LINE 119
                    > USED AT LINE 107
L09B6H:             40B6 DEFINED AT LINE 127
                    > USED AT LINE 110
                    > USED AT LINE 118
                    > USED AT LINE 122
                    > USED AT LINE 125
L09CCH:             40CC DEFINED AT LINE 141
                    > USED AT LINE 137
L09E0H:             40E0 DEFINED AT LINE 153
                    > USED AT LINE 150
L09E7H:             40E7 DEFINED AT LINE 157
                    > USED AT LINE 152
L09ECH:             40EC DEFINED AT LINE 160
                    > USED AT LINE 134
L09F5H:             40F5 DEFINED AT LINE 165
                    > USED AT LINE 163
L09F9H:             40F9 DEFINED AT LINE 169
                    > USED AT LINE 140
L0A07H:             4107 DEFINED AT LINE 176
                    > USED AT LINE 173
L0A09H:             4109 DEFINED AT LINE 178
                    > USED AT LINE 175
L0A0CH:             410C DEFINED AT LINE 180
                    > USED AT LINE 130
                    > USED AT LINE 159
SUB_0A0EH:          410E DEFINED AT LINE 183
                    > USED AT LINE 142
                    > USED AT LINE 161
SUB_0A13H:          4113 DEFINED AT LINE 188
                    > USED AT LINE 114
L0A1EH:             411E DEFINED AT LINE 195
                    > USED AT LINE 201
L0A33H:             4133 DEFINED AT LINE 209
                    > USED AT LINE 215
SUB_0A62H:          4162 DEFINED AT LINE 238
                    > USED AT LINE 202
                    > USED AT LINE 216
L0A71H:             4171 DEFINED AT LINE 249
                    > USED AT LINE 261
L0A7FH:             417F DEFINED AT LINE 258
                    > USED AT LINE 256
L0A91H:             4191 DEFINED AT LINE 273
                    > USED AT LINE 285
L0A9FH:             419F DEFINED AT LINE 282
                    > USED AT LINE 280
SUB_0AAAH:          41AA DEFINED AT LINE 292
                    > USED AT LINE 247
                    > USED AT LINE 271
SUB_0AB4H:          41B4 DEFINED AT LINE 299
                    > USED AT LINE 254
                    > USED AT LINE 278
L0AE4H:             41E4 DEFINED AT LINE 331
                    > USED AT LINE 328
L0AEDH:             41ED DEFINED AT LINE 337
                    > USED AT LINE 335
L0AF2H:             41F2 DEFINED AT LINE 342
                    > USED AT LINE 330
SUB_0AFCH:          41FC DEFINED AT LINE 349
                    > USED AT LINE 126
L0B24H:             4224 DEFINED AT LINE 374
                    > USED AT LINE 353
L0B33H:             4233 DEFINED AT LINE 384
                    > USED AT LINE 380
L0B4FH:             424F DEFINED AT LINE 402
                    > USED AT LINE 376
L0B71H:             4271 DEFINED AT LINE 424
                    > USED AT LINE 404
L0B7FH:             427F DEFINED AT LINE 434
                    > USED AT LINE 430
L0B99H:             4299 DEFINED AT LINE 451
                    > USED AT LINE 369
                    > USED AT LINE 373
                    > USED AT LINE 397
                    > USED AT LINE 401
                    > USED AT LINE 419
                    > USED AT LINE 423
                    > USED AT LINE 447
DATA1:              42A1 DEFINED AT LINE 458
SEGDATA:            4301 DEFINED AT LINE 466
MAPDATA:            4325 DEFINED AT LINE 474
RAMDATA:            43C5 DEFINED AT LINE 497
                    > USED AT LINE 9
                    > USED AT LINE 67
                    > USED AT LINE 94
                    > USED AT LINE 104
                    > USED AT LINE 148
                    > USED AT LINE 155
                    > USED AT LINE 158
                    > USED AT LINE 170
                    > USED AT LINE 171
                    > USED AT LINE 179
                    > USED AT LINE 194
                    > USED AT LINE 204
                    > USED AT LINE 208
                    > USED AT LINE 218
                    > USED AT LINE 223
                    > USED AT LINE 239
                    > USED AT LINE 295
                    > USED AT LINE 324
                    > USED AT LINE 325
                    > USED AT LINE 354
                    > USED AT LINE 358
                    > USED AT LINE 377
                    > USED AT LINE 389
                    > USED AT LINE 405
                    > USED AT LINE 409
                    > USED AT LINE 427
                    > USED AT LINE 439
SCREENDATA:         43D6 DEFINED AT LINE 499
                    > USED AT LINE 47
MAPJUMPTABLE:       43DE DEFINED AT LINE 504
