                           .data:00000000 55                               ld d,l
                           .data:00000001 55                               ld d,l
                           .data:00000002 55                               ld d,l
                           .data:00000003 55                               ld d,l
                           .data:00000004 01 01 02                         ld bc,0x0201
                           .data:00000007 03                               inc bc
                           .data:00000008 00                               nop
                           .data:00000009 00                               nop
                           .data:0000000a 40                               ld b,b
                           .data:0000000b 03                               inc bc
                           .data:0000000c c4 07 14                         call nz,0x1407
                           .data:0000000f 01 c2 09                         ld bc,0x09c2
                           .data:00000012 c2 09 c2                         jp nz,0xc209
                           .data:00000015 09                               add hl,bc
                           .data:00000016 c2 09 c2                         jp nz,0xc209
                           .data:00000019 09                               add hl,bc
                           .data:0000001a c2 09 c2                         jp nz,0xc209
                           .data:0000001d 09                               add hl,bc
                           .data:0000001e c2 09 c2                         jp nz,0xc209
                           .data:00000021 09                               add hl,bc
                           .data:00000022 c2 09 c2                         jp nz,0xc209
                           .data:00000025 09                               add hl,bc
                           .data:00000026 c2 09 c2                         jp nz,0xc209
                           .data:00000029 09                               add hl,bc
                           .data:0000002a c2 09 c2                         jp nz,0xc209
                           .data:0000002d 09                               add hl,bc
                           .data:0000002e c2 09 c2                         jp nz,0xc209
                           .data:00000031 09                               add hl,bc
                           .data:00000032 c2 09 c2                         jp nz,0xc209
                           .data:00000035 09                               add hl,bc
                           .data:00000036 c2 09 c2                         jp nz,0xc209
                           .data:00000039 09                               add hl,bc
                           .data:0000003a c2 09 c2                         jp nz,0xc209
                           .data:0000003d 09                               add hl,bc
                           .data:0000003e c2 09 c2                         jp nz,0xc209
                           .data:00000041 09                               add hl,bc
                           .data:00000042 c2 09 c2                         jp nz,0xc209
                           .data:00000045 09                               add hl,bc
                           .data:00000046 c2 09 c2                         jp nz,0xc209
                           .data:00000049 09                               add hl,bc
                           .data:0000004a c2 09 c2                         jp nz,0xc209
                           .data:0000004d 09                               add hl,bc
                           .data:0000004e c2 09 40                         jp nz,0x4009
                           .data:00000051 03                               inc bc
                           .data:00000052 c4 05 96                         call nz,0x9605
                           .data:00000055 06 48                            ld b,0x48
                           .data:00000057 02                               ld (bc),a
                           .data:00000058 ea 06 26                         jp pe,0x2606
                           .data:0000005b 06 b2                            ld b,0xb2
                           .data:0000005d 06 f6                            ld b,0xf6
                           .data:0000005f 0a                               ld a,(bc)
                           .data:00000060 d2 05 e0                         jp nc,0xe005
                           .data:00000063 05                               dec b
                           .data:00000064 9a                               sbc a,d
                           .data:00000065 05                               dec b
                           .data:00000066 a8                               xor b
                           .data:00000067 05                               dec b
                           .data:00000068 6c                               ld l,h
                           .data:00000069 06 34                            ld b,0x34
                           .data:0000006b 06 5e                            ld b,0x5e
                           .data:0000006d 06 50                            ld b,0x50
                           .data:0000006f 06 38                            ld b,0x38
                           .data:00000071 05                               dec b
                           .data:00000072 ba                               cp d
                           .data:00000073 04                               inc b
                           .data:00000074 c8                               ret z
                           .data:00000075 04                               inc b
                           .data:00000076 d6 04                            sub 0x04
                           .data:00000078 e4 04 f2                         call po,0xf204
                           .data:0000007b 04                               inc b
                           .data:0000007c 00                               nop
                           .data:0000007d 05                               dec b
                           .data:0000007e 0e 05                            ld c,0x05
                           .data:00000080 1c                               inc e
                           .data:00000081 05                               dec b
                           .data:00000082 2a 05 7a                         ld hl,(0x7a05)
                           .data:00000085 06 88                            ld b,0x88
                           .data:00000087 06 ee                            ld b,0xee
                           .data:00000089 05                               dec b
                           .data:0000008a 42                               ld b,d
                           .data:0000008b 06 fc                            ld b,0xfc
                           .data:0000008d 05                               dec b
                           .data:0000008e b6                               or (hl)
                           .data:0000008f 05                               dec b
                           .data:00000090 60                               ld h,b
                           .data:00000091 02                               ld (bc),a
                           .data:00000092 4e                               ld c,(hl)
                           .data:00000093 03                               inc bc
                           .data:00000094 5c                               ld e,h
                           .data:00000095 03                               inc bc
                           .data:00000096 6a                               ld l,d
                           .data:00000097 03                               inc bc
                           .data:00000098 78                               ld a,b
                           .data:00000099 03                               inc bc
                           .data:0000009a 86                               add a,(hl)
                           .data:0000009b 03                               inc bc
                           .data:0000009c 94                               sub h
                           .data:0000009d 03                               inc bc
                           .data:0000009e a2                               and d
                           .data:0000009f 03                               inc bc
                           .data:000000a0 b0                               or b
                           .data:000000a1 03                               inc bc
                           .data:000000a2 be                               cp (hl)
                           .data:000000a3 03                               inc bc
                           .data:000000a4 cc 03 da                         call z,0xda03
                           .data:000000a7 03                               inc bc
                           .data:000000a8 e8                               ret pe
                           .data:000000a9 03                               inc bc
                           .data:000000aa f6 03                            or 0x03
                           .data:000000ac 04                               inc b
                           .data:000000ad 04                               inc b
                           .data:000000ae 12                               ld (de),a
                           .data:000000af 04                               inc b
                           .data:000000b0 20 04                            jr nz,0x00b6
                           .data:000000b2 2e 04                            ld l,0x04
                           .data:000000b4 3c                               inc a
                           .data:000000b5 04                               inc b
                           .data:000000b6 4a                               ld c,d
                           .data:000000b7 04                               inc b
                           .data:000000b8 58                               ld e,b
                           .data:000000b9 04                               inc b
                           .data:000000ba 66                               ld h,(hl)
                           .data:000000bb 04                               inc b
                           .data:000000bc 74                               ld (hl),h
                           .data:000000bd 04                               inc b
                           .data:000000be 82                               add a,d
                           .data:000000bf 04                               inc b
                           .data:000000c0 90                               sub b
                           .data:000000c1 04                               inc b
                           .data:000000c2 9e                               sbc a,(hl)
                           .data:000000c3 04                               inc b
                           .data:000000c4 ac                               xor h
                           .data:000000c5 04                               inc b
                           .data:000000c6 00                               nop
                           .data:000000c7 02                               ld (bc),a
                           .data:000000c8 30 02                            jr nc,0x00cc
                           .data:000000ca 18 02                            jr 0x00ce
                           .data:000000cc 20 03                            jr nz,0x00d1
                           .data:000000ce b4                               or h
                           .data:000000cf 09                               add hl,bc
                           .data:000000d0 d8                               ret c
                           .data:000000d1 02                               ld (bc),a
                           .data:000000d2 22 07 30                         ld (0x3007),hl
                           .data:000000d5 07                               rlca
                           .data:000000d6 3e 07                            ld a,0x07
                           .data:000000d8 4c                               ld c,h
                           .data:000000d9 07                               rlca
                           .data:000000da 5a                               ld e,d
                           .data:000000db 07                               rlca
                           .data:000000dc 68                               ld l,b
                           .data:000000dd 07                               rlca
                           .data:000000de 76                               halt
                           .data:000000df 07                               rlca
                           .data:000000e0 84                               add a,h
                           .data:000000e1 07                               rlca
                           .data:000000e2 92                               sub d
                           .data:000000e3 07                               rlca
                           .data:000000e4 a0                               and b
                           .data:000000e5 07                               rlca
                           .data:000000e6 ae                               xor (hl)
                           .data:000000e7 07                               rlca
                           .data:000000e8 bc                               cp h
                           .data:000000e9 07                               rlca
                           .data:000000ea ca 07 d8                         jp z,0xd807
                           .data:000000ed 07                               rlca
                           .data:000000ee e6 07                            and 0x07
                           .data:000000f0 f4 07 02                         call p,0x0207
                           .data:000000f3 08                               ex af,af'
                           .data:000000f4 10 08                            djnz 0x00fe
                           .data:000000f6 1e 08                            ld e,0x08
                           .data:000000f8 2c                               inc l
                           .data:000000f9 08                               ex af,af'
                           .data:000000fa 3a 08 48                         ld a,(0x4808)
                           .data:000000fd 08                               ex af,af'
                           .data:000000fe 56                               ld d,(hl)
                           .data:000000ff 08                               ex af,af'
                           .data:00000100 64                               ld h,h
                           .data:00000101 08                               ex af,af'
                           .data:00000102 72                               ld (hl),d
                           .data:00000103 08                               ex af,af'
                           .data:00000104 80                               add a,b
                           .data:00000105 08                               ex af,af'
                           .data:00000106 78                               ld a,b
                           .data:00000107 02                               ld (bc),a
                           .data:00000108 90                               sub b
                           .data:00000109 02                               ld (bc),a
                           .data:0000010a a8                               xor b
                           .data:0000010b 02                               ld (bc),a
                           .data:0000010c c0                               ret nz
                           .data:0000010d 02                               ld (bc),a
                           .data:0000010e c2 09 c2                         jp nz,0xc209
                           .data:00000111 09                               add hl,bc
                           .data:00000112 c2 09 c2                         jp nz,0xc209
                           .data:00000115 09                               add hl,bc
                           .data:00000116 c2 09 c2                         jp nz,0xc209
                           .data:00000119 09                               add hl,bc
                           .data:0000011a c2 09 c2                         jp nz,0xc209
                           .data:0000011d 09                               add hl,bc
                           .data:0000011e c2 09 c2                         jp nz,0xc209
                           .data:00000121 09                               add hl,bc
                           .data:00000122 c2 09 c2                         jp nz,0xc209
                           .data:00000125 09                               add hl,bc
                           .data:00000126 c2 09 c2                         jp nz,0xc209
                           .data:00000129 09                               add hl,bc
                           .data:0000012a c2 09 c2                         jp nz,0xc209
                           .data:0000012d 09                               add hl,bc
                           .data:0000012e c2 09 c2                         jp nz,0xc209
                           .data:00000131 09                               add hl,bc
                           .data:00000132 c2 09 c2                         jp nz,0xc209
                           .data:00000135 09                               add hl,bc
                           .data:00000136 c2 09 c2                         jp nz,0xc209
                           .data:00000139 09                               add hl,bc
                           .data:0000013a c2 09 c2                         jp nz,0xc209
                           .data:0000013d 09                               add hl,bc
                           .data:0000013e c2 09 c2                         jp nz,0xc209
                           .data:00000141 09                               add hl,bc
                           .data:00000142 c2 09 c2                         jp nz,0xc209
                           .data:00000145 09                               add hl,bc
                           .data:00000146 c2 09 c2                         jp nz,0xc209
                           .data:00000149 09                               add hl,bc
                           .data:0000014a c2 09 c2                         jp nz,0xc209
                           .data:0000014d 09                               add hl,bc
                           .data:0000014e c2 09 c2                         jp nz,0xc209
                           .data:00000151 09                               add hl,bc
                           .data:00000152 94                               sub h
                           .data:00000153 0a                               ld a,(bc)
                           .data:00000154 86                               add a,(hl)
                           .data:00000155 0a                               ld a,(bc)
                           .data:00000156 a2                               and d
                           .data:00000157 0a                               ld a,(bc)
                           .data:00000158 c2 09 f0                         jp nz,0xf009
                           .data:0000015b 02                               ld (bc),a
                           .data:0000015c 08                               ex af,af'
                           .data:0000015d 03                               inc bc
                           .data:0000015e c2 09 c2                         jp nz,0xc209
                           .data:00000161 09                               add hl,bc
                           .data:00000162 c2 09 c2                         jp nz,0xc209
                           .data:00000165 09                               add hl,bc
                           .data:00000166 c2 09 c2                         jp nz,0xc209
                           .data:00000169 09                               add hl,bc
                           .data:0000016a c2 09 c2                         jp nz,0xc209
                           .data:0000016d 09                               add hl,bc
                           .data:0000016e c2 09 c2                         jp nz,0xc209
                           .data:00000171 09                               add hl,bc
                           .data:00000172 c2 09 c2                         jp nz,0xc209
                           .data:00000175 09                               add hl,bc
                           .data:00000176 c2 09 c2                         jp nz,0xc209
                           .data:00000179 09                               add hl,bc
                           .data:0000017a c2 09 c2                         jp nz,0xc209
                           .data:0000017d 09                               add hl,bc
                           .data:0000017e c2 09 c2                         jp nz,0xc209
                           .data:00000181 09                               add hl,bc
                           .data:00000182 c2 09 c2                         jp nz,0xc209
                           .data:00000185 09                               add hl,bc
                           .data:00000186 c2 09 c2                         jp nz,0xc209
                           .data:00000189 09                               add hl,bc
                           .data:0000018a c2 09 c2                         jp nz,0xc209
                           .data:0000018d 09                               add hl,bc
                           .data:0000018e c2 09 c2                         jp nz,0xc209
                           .data:00000191 09                               add hl,bc
                           .data:00000192 c2 09 c2                         jp nz,0xc209
                           .data:00000195 09                               add hl,bc
                           .data:00000196 c2 09 c2                         jp nz,0xc209
                           .data:00000199 09                               add hl,bc
                           .data:0000019a c2 09 c2                         jp nz,0xc209
                           .data:0000019d 09                               add hl,bc
                           .data:0000019e c2 09 c2                         jp nz,0xc209
                           .data:000001a1 09                               add hl,bc
                           .data:000001a2 c2 09 c2                         jp nz,0xc209
                           .data:000001a5 09                               add hl,bc
                           .data:000001a6 c2 09 c2                         jp nz,0xc209
                           .data:000001a9 09                               add hl,bc
                           .data:000001aa c2 09 c2                         jp nz,0xc209
                           .data:000001ad 09                               add hl,bc
                           .data:000001ae c2 09 c2                         jp nz,0xc209
                           .data:000001b1 09                               add hl,bc
                           .data:000001b2 c2 09 c2                         jp nz,0xc209
                           .data:000001b5 09                               add hl,bc
                           .data:000001b6 c2 09 c2                         jp nz,0xc209
                           .data:000001b9 09                               add hl,bc
                           .data:000001ba c2 09 c2                         jp nz,0xc209
                           .data:000001bd 09                               add hl,bc
                           .data:000001be c2 09 c2                         jp nz,0xc209
                           .data:000001c1 09                               add hl,bc
                           .data:000001c2 c2 09 c2                         jp nz,0xc209
                           .data:000001c5 09                               add hl,bc
                           .data:000001c6 c2 09 c2                         jp nz,0xc209
                           .data:000001c9 09                               add hl,bc
                           .data:000001ca c2 09 c2                         jp nz,0xc209
                           .data:000001cd 09                               add hl,bc
                           .data:000001ce c2 09 c2                         jp nz,0xc209
                           .data:000001d1 09                               add hl,bc
                           .data:000001d2 c2 09 c2                         jp nz,0xc209
                           .data:000001d5 09                               add hl,bc
                           .data:000001d6 c2 09 c2                         jp nz,0xc209
                           .data:000001d9 09                               add hl,bc
                           .data:000001da c2 09 c2                         jp nz,0xc209
                           .data:000001dd 09                               add hl,bc
                           .data:000001de c2 09 c2                         jp nz,0xc209
                           .data:000001e1 09                               add hl,bc
                           .data:000001e2 c2 09 c2                         jp nz,0xc209
                           .data:000001e5 09                               add hl,bc
                           .data:000001e6 c2 09 c2                         jp nz,0xc209
                           .data:000001e9 09                               add hl,bc
                           .data:000001ea c2 09 c2                         jp nz,0xc209
                           .data:000001ed 09                               add hl,bc
                           .data:000001ee c2 09 c2                         jp nz,0xc209
                           .data:000001f1 09                               add hl,bc
                           .data:000001f2 c2 09 c2                         jp nz,0xc209
                           .data:000001f5 09                               add hl,bc
                           .data:000001f6 c2 09 c2                         jp nz,0xc209
                           .data:000001f9 09                               add hl,bc
                           .data:000001fa c2 09 c2                         jp nz,0xc209
                           .data:000001fd 09                               add hl,bc
                           .data:000001fe c2 09 c2                         jp nz,0xc209
                           .data:00000201 09                               add hl,bc
                           .data:00000202 c2 09 c2                         jp nz,0xc209
                           .data:00000205 09                               add hl,bc
                           .data:00000206 c2 09 c2                         jp nz,0xc209
                           .data:00000209 09                               add hl,bc
                           .data:0000020a c2 09 c2                         jp nz,0xc209
                           .data:0000020d 09                               add hl,bc
                           .data:0000020e c2 09 46                         jp nz,0x4609
                           .data:00000211 05                               dec b
                           .data:00000212 46                               ld b,(hl)
                           .data:00000213 05                               dec b
                           .data:00000214 0a                               ld a,(bc)
                           .data:00000215 06 4e                            ld b,0x4e
                           .data:00000217 0a                               ld a,(bc)
                           .data:00000218 0a                               ld a,(bc)
                           .data:00000219 06 4e                            ld b,0x4e
                           .data:0000021b 0a                               ld a,(bc)
                           .data:0000021c 46                               ld b,(hl)
                           .data:0000021d 05                               dec b
                           .data:0000021e 62                               ld h,d
                           .data:0000021f 05                               dec b
                           .data:00000220 8e                               adc a,(hl)
                           .data:00000221 08                               ex af,af'
                           .data:00000222 32 0a 0a                         ld (0x0a0a),a
                           .data:00000225 06 62                            ld b,0x62
                           .data:00000227 05                               dec b
                           .data:00000228 8c                               adc a,h
                           .data:00000229 05                               dec b
                           .data:0000022a 8c                               adc a,h
                           .data:0000022b 05                               dec b
                           .data:0000022c 18 06                            jr 0x0234
                           .data:0000022e 14                               inc d
                           .data:0000022f 07                               rlca
                           .data:00000230 18 06                            jr 0x0238
                           .data:00000232 e2 08 54                         jp po,0x5408
                           .data:00000235 05                               dec b
                           .data:00000236 54                               ld d,h
                           .data:00000237 05                               dec b
                           .data:00000238 fa 09 24                         jp m,0x2409
                           .data:0000023b 0a                               ld a,(bc)
                           .data:0000023c 18 06                            jr 0x0244
                           .data:0000023e 54                               ld d,h
                           .data:0000023f 05                               dec b
                           .data:00000240 70                               ld (hl),b
                           .data:00000241 05                               dec b
                           .data:00000242 70                               ld (hl),b
                           .data:00000243 05                               dec b
                           .data:00000244 06 07                            ld b,0x07
                           .data:00000246 d4 08 de                         call nc,0xde08
                           .data:00000249 09                               add hl,bc
                           .data:0000024a d4 08 70                         call nc,0x7008
                           .data:0000024d 05                               dec b
                           .data:0000024e 7e                               ld a,(hl)
                           .data:0000024f 05                               dec b
                           .data:00000250 9c                               sbc a,h
                           .data:00000251 08                               ex af,af'
                           .data:00000252 d4 08 06                         call nc,0x0608
                           .data:00000255 07                               rlca
                           .data:00000256 7e                               ld a,(hl)
                           .data:00000257 05                               dec b
                           .data:00000258 a4                               and h
                           .data:00000259 06 a4                            ld b,0xa4
                           .data:0000025b 06 dc                            ld b,0xdc
                           .data:0000025d 06 dc                            ld b,0xdc
                           .data:0000025f 06 dc                            ld b,0xdc
                           .data:00000261 06 dc                            ld b,0xdc
                           .data:00000263 06 a4                            ld b,0xa4
                           .data:00000265 06 dc                            ld b,0xdc
                           .data:00000267 06 dc                            ld b,0xdc
                           .data:00000269 06 40                            ld b,0x40
                           .data:0000026b 0a                               ld a,(bc)
                           .data:0000026c a4                               and h
                           .data:0000026d 06 a4                            ld b,0xa4
                           .data:0000026f 06 14                            ld b,0x14
                           .data:00000271 07                               rlca
                           .data:00000272 14                               inc d
                           .data:00000273 07                               rlca
                           .data:00000274 c0                               ret nz
                           .data:00000275 06 0c                            ld b,0x0c
                           .data:00000277 09                               add hl,bc
                           .data:00000278 c0                               ret nz
                           .data:00000279 06 14                            ld b,0x14
                           .data:0000027b 07                               rlca
                           .data:0000027c ce 06                            adc a,0x06
                           .data:0000027e c0                               ret nz
                           .data:0000027f 06 36                            ld b,0x36
                           .data:00000281 09                               add hl,bc
                           .data:00000282 0c                               inc c
                           .data:00000283 09                               add hl,bc
                           .data:00000284 c0                               ret nz
                           .data:00000285 06 ce                            ld b,0xce
                           .data:00000287 06 8e                            ld b,0x8e
                           .data:00000289 08                               ex af,af'
                           .data:0000028a 8e                               adc a,(hl)
                           .data:0000028b 08                               ex af,af'
                           .data:0000028c fe 08                            cp 0x08
                           .data:0000028e e2 08 fe                         jp po,0xfe08
                           .data:00000291 08                               ex af,af'
                           .data:00000292 0c                               inc c
                           .data:00000293 09                               add hl,bc
                           .data:00000294 8e                               adc a,(hl)
                           .data:00000295 08                               ex af,af'
                           .data:00000296 1a                               ld a,(de)
                           .data:00000297 09                               add hl,bc
                           .data:00000298 d4 08 e2                         call nc,0xe208
                           .data:0000029b 08                               ex af,af'
                           .data:0000029c fe 08                            cp 0x08
                           .data:0000029e 1a                               ld a,(de)
                           .data:0000029f 09                               add hl,bc
                           .data:000002a0 9c                               sbc a,h
                           .data:000002a1 08                               ex af,af'
                           .data:000002a2 9c                               sbc a,h
                           .data:000002a3 08                               ex af,af'
                           .data:000002a4 36 09                            ld (hl),0x09
                           .data:000002a6 08                               ex af,af'
                           .data:000002a7 0a                               ld a,(bc)
                           .data:000002a8 44                               ld b,h
                           .data:000002a9 09                               add hl,bc
                           .data:000002aa 52                               ld d,d
                           .data:000002ab 09                               add hl,bc
                           .data:000002ac 9c                               sbc a,h
                           .data:000002ad 08                               ex af,af'
                           .data:000002ae a6                               and (hl)
                           .data:000002af 09                               add hl,bc
                           .data:000002b0 e2 08 08                         jp po,0x0808
                           .data:000002b3 0a                               ld a,(bc)
                           .data:000002b4 36 09                            ld (hl),0x09
                           .data:000002b6 a6                               and (hl)
                           .data:000002b7 09                               add hl,bc
                           .data:000002b8 fa 09 fa                         jp m,0xfa09
                           .data:000002bb 09                               add hl,bc
                           .data:000002bc 98                               sbc a,b
                           .data:000002bd 09                               add hl,bc
                           .data:000002be 8a                               adc a,d
                           .data:000002bf 09                               add hl,bc
                           .data:000002c0 98                               sbc a,b
                           .data:000002c1 09                               add hl,bc
                           .data:000002c2 8a                               adc a,d
                           .data:000002c3 09                               add hl,bc
                           .data:000002c4 7c                               ld a,h
                           .data:000002c5 09                               add hl,bc
                           .data:000002c6 7c                               ld a,h
                           .data:000002c7 09                               add hl,bc
                           .data:000002c8 8a                               adc a,d
                           .data:000002c9 09                               add hl,bc
                           .data:000002ca 8a                               adc a,d
                           .data:000002cb 09                               add hl,bc
                           .data:000002cc 98                               sbc a,b
                           .data:000002cd 09                               add hl,bc
                           .data:000002ce 7c                               ld a,h
                           .data:000002cf 09                               add hl,bc
                           .data:000002d0 c6 08                            add a,0x08
                           .data:000002d2 c6 08                            add a,0x08
                           .data:000002d4 78                               ld a,b
                           .data:000002d5 0a                               ld a,(bc)
                           .data:000002d6 e8                               ret pe
                           .data:000002d7 0a                               ld a,(bc)
                           .data:000002d8 78                               ld a,b
                           .data:000002d9 0a                               ld a,(bc)
                           .data:000002da 60                               ld h,b
                           .data:000002db 09                               add hl,bc
                           .data:000002dc fa 09 78                         jp m,0x7809
                           .data:000002df 0a                               ld a,(bc)
                           .data:000002e0 0c                               inc c
                           .data:000002e1 09                               add hl,bc
                           .data:000002e2 b8                               cp b
                           .data:000002e3 08                               ex af,af'
                           .data:000002e4 78                               ld a,b
                           .data:000002e5 0a                               ld a,(bc)
                           .data:000002e6 fa 09 6a                         jp m,0x6a09
                           .data:000002e9 0a                               ld a,(bc)
                           .data:000002ea 6a                               ld l,d
                           .data:000002eb 0a                               ld a,(bc)
                           .data:000002ec 6a                               ld l,d
                           .data:000002ed 0a                               ld a,(bc)
                           .data:000002ee 6a                               ld l,d
                           .data:000002ef 0a                               ld a,(bc)
                           .data:000002f0 6a                               ld l,d
                           .data:000002f1 0a                               ld a,(bc)
                           .data:000002f2 08                               ex af,af'
                           .data:000002f3 0a                               ld a,(bc)
                           .data:000002f4 e2 08 6a                         jp po,0x6a08
                           .data:000002f7 0a                               ld a,(bc)
                           .data:000002f8 a4                               and h
                           .data:000002f9 06 16                            ld b,0x16
                           .data:000002fb 0a                               ld a,(bc)
                           .data:000002fc 6a                               ld l,d
                           .data:000002fd 0a                               ld a,(bc)
                           .data:000002fe e2 08 b0                         jp po,0xb008
                           .data:00000301 0a                               ld a,(bc)
                           .data:00000302 b0                               or b
                           .data:00000303 0a                               ld a,(bc)
                           .data:00000304 b0                               or b
                           .data:00000305 0a                               ld a,(bc)
                           .data:00000306 b0                               or b
                           .data:00000307 0a                               ld a,(bc)
                           .data:00000308 b0                               or b
                           .data:00000309 0a                               ld a,(bc)
                           .data:0000030a b0                               or b
                           .data:0000030b 0a                               ld a,(bc)
                           .data:0000030c b0                               or b
                           .data:0000030d 0a                               ld a,(bc)
                           .data:0000030e b0                               or b
                           .data:0000030f 0a                               ld a,(bc)
                           .data:00000310 b0                               or b
                           .data:00000311 0a                               ld a,(bc)
                           .data:00000312 b0                               or b
                           .data:00000313 0a                               ld a,(bc)
                           .data:00000314 be                               cp (hl)
                           .data:00000315 0a                               ld a,(bc)
                           .data:00000316 b0                               or b
                           .data:00000317 0a                               ld a,(bc)
                           .data:00000318 cc 0a cc                         call z,0xcc0a
                           .data:0000031b 0a                               ld a,(bc)
                           .data:0000031c cc 0a cc                         call z,0xcc0a
                           .data:0000031f 0a                               ld a,(bc)
                           .data:00000320 cc 0a cc                         call z,0xcc0a
                           .data:00000323 0a                               ld a,(bc)
                           .data:00000324 cc 0a cc                         call z,0xcc0a
                           .data:00000327 0a                               ld a,(bc)
                           .data:00000328 cc 0a cc                         call z,0xcc0a
                           .data:0000032b 0a                               ld a,(bc)
                           .data:0000032c da 0a cc                         jp c,0xcc0a
                           .data:0000032f 0a                               ld a,(bc)
                           .data:00000330 5c                               ld e,h
                           .data:00000331 0a                               ld a,(bc)
                           .data:00000332 5c                               ld e,h
                           .data:00000333 0a                               ld a,(bc)
                           .data:00000334 5c                               ld e,h
                           .data:00000335 0a                               ld a,(bc)
                           .data:00000336 5c                               ld e,h
                           .data:00000337 0a                               ld a,(bc)
                           .data:00000338 5c                               ld e,h
                           .data:00000339 0a                               ld a,(bc)
                           .data:0000033a 5c                               ld e,h
                           .data:0000033b 0a                               ld a,(bc)
                           .data:0000033c 8c                               adc a,h
                           .data:0000033d 05                               dec b
                           .data:0000033e 5c                               ld e,h
                           .data:0000033f 0a                               ld a,(bc)
                           .data:00000340 5c                               ld e,h
                           .data:00000341 0a                               ld a,(bc)
                           .data:00000342 5c                               ld e,h
                           .data:00000343 0a                               ld a,(bc)
                           .data:00000344 5c                               ld e,h
                           .data:00000345 0a                               ld a,(bc)
                           .data:00000346 8c                               adc a,h
                           .data:00000347 05                               dec b
                           .data:00000348 5c                               ld e,h
                           .data:00000349 0a                               ld a,(bc)
                           .data:0000034a 5c                               ld e,h
                           .data:0000034b 0a                               ld a,(bc)
                           .data:0000034c 5c                               ld e,h
                           .data:0000034d 0a                               ld a,(bc)
                           .data:0000034e 5c                               ld e,h
                           .data:0000034f 0a                               ld a,(bc)
                           .data:00000350 00                               nop
                           .data:00000351 00                               nop
                           .data:00000352 00                               nop
                           .data:00000353 00                               nop
                           .data:00000354 00                               nop
                           .data:00000355 00                               nop
                           .data:00000356 00                               nop
                           .data:00000357 00                               nop
                           .data:00000358 00                               nop
                           .data:00000359 00                               nop
                           .data:0000035a 00                               nop
                           .data:0000035b 00                               nop
                           .data:0000035c 00                               nop
                           .data:0000035d 00                               nop
                           .data:0000035e 01 02 03                         ld bc,0x0302
                           .data:00000361 04                               inc b
                           .data:00000362 05                               dec b
                           .data:00000363 04                               inc b
                           .data:00000364 03                               inc bc
                           .data:00000365 02                               ld (bc),a
                           .data:00000366 01 00 00                         ld bc,0x0000
                           .data:00000369 00                               nop
                           .data:0000036a 00                               nop
                           .data:0000036b 00                               nop
                           .data:0000036c 06 00                            ld b,0x00
                           .data:0000036e 07                               rlca
                           .data:0000036f 00                               nop
                           .data:00000370 07                               rlca
                           .data:00000371 00                               nop
                           .data:00000372 07                               rlca
                           .data:00000373 08                               ex af,af'
                           .data:00000374 09                               add hl,bc
                           .data:00000375 00                               nop
                           .data:00000376 00                               nop
                           .data:00000377 00                               nop
                           .data:00000378 00                               nop
                           .data:00000379 00                               nop
                           .data:0000037a 00                               nop
                           .data:0000037b 0a                               ld a,(bc)
                           .data:0000037c 0b                               dec bc
                           .data:0000037d 0c                               inc c
                           .data:0000037e 00                               nop
                           .data:0000037f 0c                               inc c
                           .data:00000380 00                               nop
                           .data:00000381 0c                               inc c
                           .data:00000382 0b                               dec bc
                           .data:00000383 00                               nop
                           .data:00000384 00                               nop
                           .data:00000385 00                               nop
                           .data:00000386 00                               nop
                           .data:00000387 00                               nop
                           .data:00000388 00                               nop
                           .data:00000389 06 00                            ld b,0x00
                           .data:0000038b 0c                               inc c
                           .data:0000038c 00                               nop
                           .data:0000038d 0c                               inc c
                           .data:0000038e 00                               nop
                           .data:0000038f 0b                               dec bc
                           .data:00000390 0a                               ld a,(bc)
                           .data:00000391 00                               nop
                           .data:00000392 00                               nop
                           .data:00000393 00                               nop
                           .data:00000394 00                               nop
                           .data:00000395 00                               nop
                           .data:00000396 06 00                            ld b,0x00
                           .data:00000398 07                               rlca
                           .data:00000399 00                               nop
                           .data:0000039a 07                               rlca
                           .data:0000039b 00                               nop
                           .data:0000039c 0c                               inc c
                           .data:0000039d 00                               nop
                           .data:0000039e 0c                               inc c
                           .data:0000039f 00                               nop
                           .data:000003a0 00                               nop
                           .data:000003a1 00                               nop
                           .data:000003a2 00                               nop
                           .data:000003a3 00                               nop
                           .data:000003a4 06 00                            ld b,0x00
                           .data:000003a6 0d                               dec c
                           .data:000003a7 00                               nop
                           .data:000003a8 0d                               dec c
                           .data:000003a9 00                               nop
                           .data:000003aa 0d                               dec c
                           .data:000003ab 00                               nop
                           .data:000003ac 0e 00                            ld c,0x00
                           .data:000003ae 00                               nop
                           .data:000003af 00                               nop
                           .data:000003b0 00                               nop
                           .data:000003b1 00                               nop
                           .data:000003b2 0a                               ld a,(bc)
                           .data:000003b3 0b                               dec bc
                           .data:000003b4 0c                               inc c
                           .data:000003b5 00                               nop
                           .data:000003b6 07                               rlca
                           .data:000003b7 00                               nop
                           .data:000003b8 07                               rlca
                           .data:000003b9 00                               nop
                           .data:000003ba 0f                               rrca
                           .data:000003bb 00                               nop
                           .data:000003bc 00                               nop
                           .data:000003bd 00                               nop
                           .data:000003be 00                               nop
                           .data:000003bf 00                               nop
                           .data:000003c0 06 00                            ld b,0x00
                           .data:000003c2 02                               ld (bc),a
                           .data:000003c3 00                               nop
                           .data:000003c4 02                               ld (bc),a
                           .data:000003c5 00                               nop
                           .data:000003c6 02                               ld (bc),a
                           .data:000003c7 00                               nop
                           .data:000003c8 06 00                            ld b,0x00
                           .data:000003ca 00                               nop
                           .data:000003cb 00                               nop
                           .data:000003cc 00                               nop
                           .data:000003cd 00                               nop
                           .data:000003ce 00                               nop
                           .data:000003cf 10 0e                            djnz 0x03df
                           .data:000003d1 10 11                            djnz 0x03e4
                           .data:000003d3 10 0e                            djnz 0x03e3
                           .data:000003d5 10 00                            djnz 0x03d7
                           .data:000003d7 00                               nop
                           .data:000003d8 00                               nop
                           .data:000003d9 00                               nop
                           .data:000003da 00                               nop
                           .data:000003db 00                               nop
                           .data:000003dc 12                               ld (de),a
                           .data:000003dd 10 00                            djnz 0x03df
                           .data:000003df 10 00                            djnz 0x03e1
                           .data:000003e1 10 11                            djnz 0x03f4
                           .data:000003e3 00                               nop
                           .data:000003e4 00                               nop
                           .data:000003e5 00                               nop
                           .data:000003e6 00                               nop
                           .data:000003e7 00                               nop
                           .data:000003e8 00                               nop
                           .data:000003e9 00                               nop
                           .data:000003ea 06 00                            ld b,0x00
                           .data:000003ec 02                               ld (bc),a
                           .data:000003ed 00                               nop
                           .data:000003ee 13                               inc de
                           .data:000003ef 02                               ld (bc),a
                           .data:000003f0 14                               inc d
                           .data:000003f1 12                               ld (de),a
                           .data:000003f2 0c                               inc c
                           .data:000003f3 00                               nop
                           .data:000003f4 00                               nop
                           .data:000003f5 00                               nop
                           .data:000003f6 00                               nop
                           .data:000003f7 00                               nop
                           .data:000003f8 06 00                            ld b,0x00
                           .data:000003fa 10 00                            djnz 0x03fc
                           .data:000003fc 10 00                            djnz 0x03fe
                           .data:000003fe 10 00                            djnz 0x0400
                           .data:00000400 10 00                            djnz 0x0402
                           .data:00000402 00                               nop
                           .data:00000403 00                               nop
                           .data:00000404 00                               nop
                           .data:00000405 00                               nop
                           .data:00000406 06 00                            ld b,0x00
                           .data:00000408 04                               inc b
                           .data:00000409 00                               nop
                           .data:0000040a 15                               dec d
                           .data:0000040b 00                               nop
                           .data:0000040c 04                               inc b
                           .data:0000040d 00                               nop
                           .data:0000040e 06 00                            ld b,0x00
                           .data:00000410 00                               nop
                           .data:00000411 00                               nop
                           .data:00000412 00                               nop
                           .data:00000413 00                               nop
                           .data:00000414 06 00                            ld b,0x00
                           .data:00000416 04                               inc b
                           .data:00000417 13                               inc de
                           .data:00000418 02                               ld (bc),a
                           .data:00000419 16 00                            ld d,0x00
                           .data:0000041b 06 00                            ld b,0x00
                           .data:0000041d 00                               nop
                           .data:0000041e 00                               nop
                           .data:0000041f 00                               nop
                           .data:00000420 00                               nop
                           .data:00000421 00                               nop
                           .data:00000422 0a                               ld a,(bc)
                           .data:00000423 0b                               dec bc
                           .data:00000424 00                               nop
                           .data:00000425 0c                               inc c
                           .data:00000426 00                               nop
                           .data:00000427 0c                               inc c
                           .data:00000428 00                               nop
                           .data:00000429 0b                               dec bc
                           .data:0000042a 0a                               ld a,(bc)
                           .data:0000042b 00                               nop
                           .data:0000042c 00                               nop
                           .data:0000042d 00                               nop
                           .data:0000042e 00                               nop
                           .data:0000042f 00                               nop
                           .data:00000430 00                               nop
                           .data:00000431 06 00                            ld b,0x00
                           .data:00000433 0d                               dec c
                           .data:00000434 00                               nop
                           .data:00000435 0d                               dec c
                           .data:00000436 00                               nop
                           .data:00000437 0d                               dec c
                           .data:00000438 08                               ex af,af'
                           .data:00000439 00                               nop
                           .data:0000043a 00                               nop
                           .data:0000043b 00                               nop
                           .data:0000043c 00                               nop
                           .data:0000043d 00                               nop
                           .data:0000043e 0a                               ld a,(bc)
                           .data:0000043f 0b                               dec bc
                           .data:00000440 00                               nop
                           .data:00000441 0c                               inc c
                           .data:00000442 16 0c                            ld d,0x0c
                           .data:00000444 12                               ld (de),a
                           .data:00000445 04                               inc b
                           .data:00000446 17                               rla
                           .data:00000447 00                               nop
                           .data:00000448 00                               nop
                           .data:00000449 00                               nop
                           .data:0000044a 00                               nop
                           .data:0000044b 00                               nop
                           .data:0000044c 00                               nop
                           .data:0000044d 06 00                            ld b,0x00
                           .data:0000044f 0d                               dec c
                           .data:00000450 00                               nop
                           .data:00000451 0d                               dec c
                           .data:00000452 16 18                            ld d,0x18
                           .data:00000454 19                               add hl,de
                           .data:00000455 00                               nop
                           .data:00000456 00                               nop
                           .data:00000457 00                               nop
                           .data:00000458 00                               nop
                           .data:00000459 00                               nop
                           .data:0000045a 1a                               ld a,(de)
                           .data:0000045b 07                               rlca
                           .data:0000045c 00                               nop
                           .data:0000045d 07                               rlca
                           .data:0000045e 00                               nop
                           .data:0000045f 07                               rlca
                           .data:00000460 00                               nop
                           .data:00000461 07                               rlca
                           .data:00000462 1b                               dec de
                           .data:00000463 00                               nop
                           .data:00000464 00                               nop
                           .data:00000465 00                               nop
                           .data:00000466 00                               nop
                           .data:00000467 00                               nop
                           .data:00000468 0e 00                            ld c,0x00
                           .data:0000046a 0e 00                            ld c,0x00
                           .data:0000046c 06 00                            ld b,0x00
                           .data:0000046e 0e 00                            ld c,0x00
                           .data:00000470 0e 00                            ld c,0x00
                           .data:00000472 00                               nop
                           .data:00000473 00                               nop
                           .data:00000474 00                               nop
                           .data:00000475 00                               nop
                           .data:00000476 1c                               inc e
                           .data:00000477 12                               ld (de),a
                           .data:00000478 10 00                            djnz 0x047a
                           .data:0000047a 10 00                            djnz 0x047c
                           .data:0000047c 10 12                            djnz 0x0490
                           .data:0000047e 1c                               inc e
                           .data:0000047f 00                               nop
                           .data:00000480 00                               nop
                           .data:00000481 00                               nop
                           .data:00000482 00                               nop
                           .data:00000483 00                               nop
                           .data:00000484 1d                               dec e
                           .data:00000485 02                               ld (bc),a
                           .data:00000486 16 12                            ld d,0x12
                           .data:00000488 10 12                            djnz 0x049c
                           .data:0000048a 16 02                            ld d,0x02
                           .data:0000048c 1d                               dec e
                           .data:0000048d 00                               nop
                           .data:0000048e 00                               nop
                           .data:0000048f 00                               nop
                           .data:00000490 00                               nop
                           .data:00000491 00                               nop
                           .data:00000492 11 10 12                         ld de,0x1210
                           .data:00000495 00                               nop
                           .data:00000496 1e 00                            ld e,0x00
                           .data:00000498 12                               ld (de),a
                           .data:00000499 10 11                            djnz 0x04ac
                           .data:0000049b 00                               nop
                           .data:0000049c 00                               nop
                           .data:0000049d 00                               nop
                           .data:0000049e 00                               nop
                           .data:0000049f 00                               nop
                           .data:000004a0 00                               nop
                           .data:000004a1 0c                               inc c
                           .data:000004a2 0b                               dec bc
                           .data:000004a3 03                               inc bc
                           .data:000004a4 02                               ld (bc),a
                           .data:000004a5 03                               inc bc
                           .data:000004a6 0b                               dec bc
                           .data:000004a7 0c                               inc c
                           .data:000004a8 00                               nop
                           .data:000004a9 00                               nop
                           .data:000004aa 00                               nop
                           .data:000004ab 00                               nop
                           .data:000004ac 00                               nop
                           .data:000004ad 00                               nop
                           .data:000004ae 0e 04                            ld c,0x04
                           .data:000004b0 13                               inc de
                           .data:000004b1 02                               ld (bc),a
                           .data:000004b2 01 02 13                         ld bc,0x1302
                           .data:000004b5 04                               inc b
                           .data:000004b6 0e 00                            ld c,0x00
                           .data:000004b8 00                               nop
                           .data:000004b9 00                               nop
                           .data:000004ba 00                               nop
                           .data:000004bb 00                               nop
                           .data:000004bc 00                               nop
                           .data:000004bd 0c                               inc c
                           .data:000004be 12                               ld (de),a
                           .data:000004bf 1f                               rra
                           .data:000004c0 02                               ld (bc),a
                           .data:000004c1 20 04                            jr nz,0x04c7
                           .data:000004c3 0c                               inc c
                           .data:000004c4 00                               nop
                           .data:000004c5 00                               nop
                           .data:000004c6 00                               nop
                           .data:000004c7 00                               nop
                           .data:000004c8 00                               nop
                           .data:000004c9 00                               nop
                           .data:000004ca 00                               nop
                           .data:000004cb 13                               inc de
                           .data:000004cc 00                               nop
                           .data:000004cd 21 00 06                         ld hl,0x0600
                           .data:000004d0 00                               nop
                           .data:000004d1 10 00                            djnz 0x04d3
                           .data:000004d3 00                               nop
                           .data:000004d4 00                               nop
                           .data:000004d5 00                               nop
                           .data:000004d6 00                               nop
                           .data:000004d7 00                               nop
                           .data:000004d8 21 00 22                         ld hl,0x2200
                           .data:000004db 00                               nop
                           .data:000004dc 1f                               rra
                           .data:000004dd 00                               nop
                           .data:000004de 07                               rlca
                           .data:000004df 00                               nop
                           .data:000004e0 19                               add hl,de
                           .data:000004e1 00                               nop
                           .data:000004e2 00                               nop
                           .data:000004e3 00                               nop
                           .data:000004e4 00                               nop
                           .data:000004e5 00                               nop
                           .data:000004e6 23                               inc hl
                           .data:000004e7 10 0e                            djnz 0x04f7
                           .data:000004e9 10 0e                            djnz 0x04f9
                           .data:000004eb 10 24                            djnz 0x0511
                           .data:000004ed 25                               dec h
                           .data:000004ee 26 00                            ld h,0x00
                           .data:000004f0 00                               nop
                           .data:000004f1 00                               nop
                           .data:000004f2 00                               nop
                           .data:000004f3 00                               nop
                           .data:000004f4 16 02                            ld d,0x02
                           .data:000004f6 03                               inc bc
                           .data:000004f7 04                               inc b
                           .data:000004f8 05                               dec b
                           .data:000004f9 00                               nop
                           .data:000004fa 27                               daa
                           .data:000004fb 00                               nop
                           .data:000004fc 16 00                            ld d,0x00
                           .data:000004fe 00                               nop
                           .data:000004ff 00                               nop
                           .data:00000500 00                               nop
                           .data:00000501 00                               nop
                           .data:00000502 28 00                            jr z,0x0504
                           .data:00000504 20 00                            jr nz,0x0506
                           .data:00000506 20 00                            jr nz,0x0508
                           .data:00000508 20 29                            jr nz,0x0533
                           .data:0000050a 16 00                            ld d,0x00
                           .data:0000050c 00                               nop
                           .data:0000050d 00                               nop
                           .data:0000050e 00                               nop
                           .data:0000050f 00                               nop
                           .data:00000510 09                               add hl,bc
                           .data:00000511 2a 13 25                         ld hl,(0x2513)
                           .data:00000514 0e 2a                            ld c,0x2a
                           .data:00000516 00                               nop
                           .data:00000517 2a 09 00                         ld hl,(0x0009)
                           .data:0000051a 00                               nop
                           .data:0000051b 00                               nop
                           .data:0000051c 00                               nop
                           .data:0000051d 00                               nop
                           .data:0000051e 0e 00                            ld c,0x00
                           .data:00000520 0e 2b                            ld c,0x2b
                           .data:00000522 05                               dec b
                           .data:00000523 02                               ld (bc),a
                           .data:00000524 24                               inc h
                           .data:00000525 04                               inc b
                           .data:00000526 0e 00                            ld c,0x00
                           .data:00000528 00                               nop
                           .data:00000529 00                               nop
                           .data:0000052a 00                               nop
                           .data:0000052b 00                               nop
                           .data:0000052c 09                               add hl,bc
                           .data:0000052d 25                               dec h
                           .data:0000052e 24                               inc h
                           .data:0000052f 2a 0e 2a                         ld hl,(0x2a0e)
                           .data:00000532 24                               inc h
                           .data:00000533 25                               dec h
                           .data:00000534 09                               add hl,bc
                           .data:00000535 00                               nop
                           .data:00000536 00                               nop
                           .data:00000537 00                               nop
                           .data:00000538 00                               nop
                           .data:00000539 00                               nop
                           .data:0000053a 08                               ex af,af'
                           .data:0000053b 0d                               dec c
                           .data:0000053c 00                               nop
                           .data:0000053d 0d                               dec c
                           .data:0000053e 10 18                            djnz 0x0558
                           .data:00000540 16 0d                            ld d,0x0d
                           .data:00000542 08                               ex af,af'
                           .data:00000543 00                               nop
                           .data:00000544 00                               nop
                           .data:00000545 00                               nop
                           .data:00000546 00                               nop
                           .data:00000547 00                               nop
                           .data:00000548 2c                               inc l
                           .data:00000549 0c                               inc c
                           .data:0000054a 00                               nop
                           .data:0000054b 0c                               inc c
                           .data:0000054c 00                               nop
                           .data:0000054d 0c                               inc c
                           .data:0000054e 00                               nop
                           .data:0000054f 0c                               inc c
                           .data:00000550 2c                               inc l
                           .data:00000551 00                               nop
                           .data:00000552 00                               nop
                           .data:00000553 00                               nop
                           .data:00000554 00                               nop
                           .data:00000555 00                               nop
                           .data:00000556 22 16 29                         ld (0x2916),hl
                           .data:00000559 13                               inc de
                           .data:0000055a 0b                               dec bc
                           .data:0000055b 13                               inc de
                           .data:0000055c 29                               add hl,hl
                           .data:0000055d 16 22                            ld d,0x22
                           .data:0000055f 00                               nop
                           .data:00000560 00                               nop
                           .data:00000561 00                               nop
                           .data:00000562 00                               nop
                           .data:00000563 00                               nop
                           .data:00000564 2b                               dec hl
                           .data:00000565 16 2d                            ld d,0x2d
                           .data:00000567 24                               inc h
                           .data:00000568 12                               ld (de),a
                           .data:00000569 24                               inc h
                           .data:0000056a 2d                               dec l
                           .data:0000056b 16 2b                            ld d,0x2b
                           .data:0000056d 00                               nop
                           .data:0000056e 00                               nop
                           .data:0000056f 00                               nop
                           .data:00000570 00                               nop
                           .data:00000571 00                               nop
                           .data:00000572 2e 00                            ld l,0x00
                           .data:00000574 05                               dec b
                           .data:00000575 00                               nop
                           .data:00000576 06 00                            ld b,0x00
                           .data:00000578 07                               rlca
                           .data:00000579 00                               nop
                           .data:0000057a 07                               rlca
                           .data:0000057b 00                               nop
                           .data:0000057c 00                               nop
                           .data:0000057d 00                               nop
                           .data:0000057e 00                               nop
                           .data:0000057f 00                               nop
                           .data:00000580 2f                               cpl
                           .data:00000581 20 00                            jr nz,0x0583
                           .data:00000583 30 00                            jr nc,0x0585
                           .data:00000585 30 00                            jr nc,0x0587
                           .data:00000587 20 2f                            jr nz,0x05b8
                           .data:00000589 00                               nop
                           .data:0000058a 00                               nop
                           .data:0000058b 00                               nop
                           .data:0000058c 00                               nop
                           .data:0000058d 00                               nop
                           .data:0000058e 17                               rla
                           .data:0000058f 0b                               dec bc
                           .data:00000590 16 2d                            ld d,0x2d
                           .data:00000592 13                               inc de
                           .data:00000593 0b                               dec bc
                           .data:00000594 0e 0b                            ld c,0x0b
                           .data:00000596 0a                               ld a,(bc)
                           .data:00000597 00                               nop
                           .data:00000598 00                               nop
                           .data:00000599 00                               nop
                           .data:0000059a 00                               nop
                           .data:0000059b 00                               nop
                           .data:0000059c 0a                               ld a,(bc)
                           .data:0000059d 23                               inc hl
                           .data:0000059e 10 00                            djnz 0x05a0
                           .data:000005a0 10 00                            djnz 0x05a2
                           .data:000005a2 10 23                            djnz 0x05c7
                           .data:000005a4 0a                               ld a,(bc)
                           .data:000005a5 00                               nop
                           .data:000005a6 00                               nop
                           .data:000005a7 00                               nop
                           .data:000005a8 00                               nop
                           .data:000005a9 00                               nop
                           .data:000005aa 02                               ld (bc),a
                           .data:000005ab 00                               nop
                           .data:000005ac 2d                               dec l
                           .data:000005ad 03                               inc bc
                           .data:000005ae 02                               ld (bc),a
                           .data:000005af 03                               inc bc
                           .data:000005b0 2d                               dec l
                           .data:000005b1 00                               nop
                           .data:000005b2 02                               ld (bc),a
                           .data:000005b3 00                               nop
                           .data:000005b4 00                               nop
                           .data:000005b5 00                               nop
                           .data:000005b6 00                               nop
                           .data:000005b7 00                               nop
                           .data:000005b8 02                               ld (bc),a
                           .data:000005b9 00                               nop
                           .data:000005ba 02                               ld (bc),a
                           .data:000005bb 00                               nop
                           .data:000005bc 2c                               inc l
                           .data:000005bd 00                               nop
                           .data:000005be 02                               ld (bc),a
                           .data:000005bf 00                               nop
                           .data:000005c0 02                               ld (bc),a
                           .data:000005c1 00                               nop
                           .data:000005c2 00                               nop
                           .data:000005c3 00                               nop
                           .data:000005c4 00                               nop
                           .data:000005c5 00                               nop
                           .data:000005c6 00                               nop
                           .data:000005c7 04                               inc b
                           .data:000005c8 0e 00                            ld c,0x00
                           .data:000005ca 1f                               rra
                           .data:000005cb 02                               ld (bc),a
                           .data:000005cc 24                               inc h
                           .data:000005cd 04                               inc b
                           .data:000005ce 00                               nop
                           .data:000005cf 00                               nop
                           .data:000005d0 00                               nop
                           .data:000005d1 00                               nop
                           .data:000005d2 00                               nop
                           .data:000005d3 00                               nop
                           .data:000005d4 00                               nop
                           .data:000005d5 00                               nop
                           .data:000005d6 00                               nop
                           .data:000005d7 00                               nop
                           .data:000005d8 31 00 00                         ld sp,0x0000
                           .data:000005db 00                               nop
                           .data:000005dc 00                               nop
                           .data:000005dd 00                               nop
                           .data:000005de 00                               nop
                           .data:000005df 00                               nop
                           .data:000005e0 00                               nop
                           .data:000005e1 00                               nop
                           .data:000005e2 00                               nop
                           .data:000005e3 00                               nop
                           .data:000005e4 00                               nop
                           .data:000005e5 0a                               ld a,(bc)
                           .data:000005e6 0b                               dec bc
                           .data:000005e7 00                               nop
                           .data:000005e8 0c                               inc c
                           .data:000005e9 00                               nop
                           .data:000005ea 00                               nop
                           .data:000005eb 00                               nop
                           .data:000005ec 00                               nop
                           .data:000005ed 00                               nop
                           .data:000005ee 00                               nop
                           .data:000005ef 00                               nop
                           .data:000005f0 00                               nop
                           .data:000005f1 00                               nop
                           .data:000005f2 0c                               inc c
                           .data:000005f3 00                               nop
                           .data:000005f4 0b                               dec bc
                           .data:000005f5 0a                               ld a,(bc)
                           .data:000005f6 00                               nop
                           .data:000005f7 00                               nop
                           .data:000005f8 00                               nop
                           .data:000005f9 00                               nop
                           .data:000005fa 00                               nop
                           .data:000005fb 00                               nop
                           .data:000005fc 00                               nop
                           .data:000005fd 00                               nop
                           .data:000005fe 02                               ld (bc),a
                           .data:000005ff 00                               nop
                           .data:00000600 0a                               ld a,(bc)
                           .data:00000601 00                               nop
                           .data:00000602 32 00 33                         ld (0x3300),a
                           .data:00000605 00                               nop
                           .data:00000606 0c                               inc c
                           .data:00000607 00                               nop
                           .data:00000608 00                               nop
                           .data:00000609 00                               nop
                           .data:0000060a 00                               nop
                           .data:0000060b 00                               nop
                           .data:0000060c 0c                               inc c
                           .data:0000060d 00                               nop
                           .data:0000060e 33                               inc sp
                           .data:0000060f 00                               nop
                           .data:00000610 32 00 0a                         ld (0x0a00),a
                           .data:00000613 00                               nop
                           .data:00000614 02                               ld (bc),a
                           .data:00000615 00                               nop
                           .data:00000616 00                               nop
                           .data:00000617 00                               nop
                           .data:00000618 00                               nop
                           .data:00000619 00                               nop
                           .data:0000061a 00                               nop
                           .data:0000061b 06 00                            ld b,0x00
                           .data:0000061d 0c                               inc c
                           .data:0000061e 00                               nop
                           .data:0000061f 0c                               inc c
                           .data:00000620 00                               nop
                           .data:00000621 0c                               inc c
                           .data:00000622 00                               nop
                           .data:00000623 00                               nop
                           .data:00000624 00                               nop
                           .data:00000625 00                               nop
                           .data:00000626 00                               nop
                           .data:00000627 00                               nop
                           .data:00000628 00                               nop
                           .data:00000629 0c                               inc c
                           .data:0000062a 00                               nop
                           .data:0000062b 0c                               inc c
                           .data:0000062c 00                               nop
                           .data:0000062d 0c                               inc c
                           .data:0000062e 00                               nop
                           .data:0000062f 06 00                            ld b,0x00
                           .data:00000631 00                               nop
                           .data:00000632 00                               nop
                           .data:00000633 00                               nop
                           .data:00000634 00                               nop
                           .data:00000635 00                               nop
                           .data:00000636 34                               inc (hl)
                           .data:00000637 10 35                            djnz 0x066e
                           .data:00000639 16 02                            ld d,0x02
                           .data:0000063b 13                               inc de
                           .data:0000063c 36 0e                            ld (hl),0x0e
                           .data:0000063e 2b                               dec hl
                           .data:0000063f 00                               nop
                           .data:00000640 00                               nop
                           .data:00000641 00                               nop
                           .data:00000642 00                               nop
                           .data:00000643 00                               nop
                           .data:00000644 02                               ld (bc),a
                           .data:00000645 00                               nop
                           .data:00000646 02                               ld (bc),a
                           .data:00000647 00                               nop
                           .data:00000648 02                               ld (bc),a
                           .data:00000649 00                               nop
                           .data:0000064a 02                               ld (bc),a
                           .data:0000064b 00                               nop
                           .data:0000064c 02                               ld (bc),a
                           .data:0000064d 00                               nop
                           .data:0000064e 00                               nop
                           .data:0000064f 00                               nop
                           .data:00000650 00                               nop
                           .data:00000651 00                               nop
                           .data:00000652 03                               inc bc
                           .data:00000653 00                               nop
                           .data:00000654 03                               inc bc
                           .data:00000655 00                               nop
                           .data:00000656 03                               inc bc
                           .data:00000657 00                               nop
                           .data:00000658 03                               inc bc
                           .data:00000659 00                               nop
                           .data:0000065a 03                               inc bc
                           .data:0000065b 00                               nop
                           .data:0000065c 00                               nop
                           .data:0000065d 00                               nop
                           .data:0000065e 00                               nop
                           .data:0000065f 00                               nop
                           .data:00000660 00                               nop
                           .data:00000661 10 12                            djnz 0x0675
                           .data:00000663 16 02                            ld d,0x02
                           .data:00000665 13                               inc de
                           .data:00000666 04                               inc b
                           .data:00000667 0e 00                            ld c,0x00
                           .data:00000669 00                               nop
                           .data:0000066a 00                               nop
                           .data:0000066b 00                               nop
                           .data:0000066c 00                               nop
                           .data:0000066d 00                               nop
                           .data:0000066e 00                               nop
                           .data:0000066f 00                               nop
                           .data:00000670 00                               nop
                           .data:00000671 2b                               dec hl
                           .data:00000672 00                               nop
                           .data:00000673 2b                               dec hl
                           .data:00000674 00                               nop
                           .data:00000675 00                               nop
                           .data:00000676 00                               nop
                           .data:00000677 00                               nop
                           .data:00000678 00                               nop
                           .data:00000679 00                               nop
                           .data:0000067a 00                               nop
                           .data:0000067b 00                               nop
                           .data:0000067c 00                               nop
                           .data:0000067d 00                               nop
                           .data:0000067e 00                               nop
                           .data:0000067f 2b                               dec hl
                           .data:00000680 37                               scf
                           .data:00000681 38 00                            jr c,0x0683
                           .data:00000683 00                               nop
                           .data:00000684 00                               nop
                           .data:00000685 00                               nop
                           .data:00000686 00                               nop
                           .data:00000687 00                               nop
                           .data:00000688 00                               nop
                           .data:00000689 00                               nop
                           .data:0000068a 00                               nop
                           .data:0000068b 00                               nop
                           .data:0000068c 00                               nop
                           .data:0000068d 39                               add hl,sp
                           .data:0000068e 00                               nop
                           .data:0000068f 39                               add hl,sp
                           .data:00000690 00                               nop
                           .data:00000691 00                               nop
                           .data:00000692 00                               nop
                           .data:00000693 00                               nop
                           .data:00000694 00                               nop
                           .data:00000695 00                               nop
                           .data:00000696 00                               nop
                           .data:00000697 00                               nop
                           .data:00000698 00                               nop
                           .data:00000699 00                               nop
                           .data:0000069a 00                               nop
                           .data:0000069b 39                               add hl,sp
                           .data:0000069c 37                               scf
                           .data:0000069d 3a 00 00                         ld a,(0x0000)
                           .data:000006a0 00                               nop
                           .data:000006a1 00                               nop
                           .data:000006a2 00                               nop
                           .data:000006a3 00                               nop
                           .data:000006a4 00                               nop
                           .data:000006a5 00                               nop
                           .data:000006a6 00                               nop
                           .data:000006a7 00                               nop
                           .data:000006a8 1d                               dec e
                           .data:000006a9 00                               nop
                           .data:000006aa 00                               nop
                           .data:000006ab 00                               nop
                           .data:000006ac 1d                               dec e
                           .data:000006ad 00                               nop
                           .data:000006ae 00                               nop
                           .data:000006af 00                               nop
                           .data:000006b0 00                               nop
                           .data:000006b1 00                               nop
                           .data:000006b2 00                               nop
                           .data:000006b3 00                               nop
                           .data:000006b4 03                               inc bc
                           .data:000006b5 00                               nop
                           .data:000006b6 06 00                            ld b,0x00
                           .data:000006b8 03                               inc bc
                           .data:000006b9 00                               nop
                           .data:000006ba 06 00                            ld b,0x00
                           .data:000006bc 03                               inc bc
                           .data:000006bd 00                               nop
                           .data:000006be 00                               nop
                           .data:000006bf 00                               nop
                           .data:000006c0 00                               nop
                           .data:000006c1 00                               nop
                           .data:000006c2 09                               add hl,bc
                           .data:000006c3 25                               dec h
                           .data:000006c4 24                               inc h
                           .data:000006c5 2a 3b 21                         ld hl,(0x213b)
                           .data:000006c8 12                               ld (de),a
                           .data:000006c9 10 09                            djnz 0x06d4
                           .data:000006cb 00                               nop
                           .data:000006cc 00                               nop
                           .data:000006cd 00                               nop
                           .data:000006ce 00                               nop
                           .data:000006cf 00                               nop
                           .data:000006d0 09                               add hl,bc
                           .data:000006d1 25                               dec h
                           .data:000006d2 0e 2a                            ld c,0x2a
                           .data:000006d4 26 10                            ld h,0x10
                           .data:000006d6 0e 21                            ld c,0x21
                           .data:000006d8 3c                               inc a
                           .data:000006d9 00                               nop
                           .data:000006da 00                               nop
                           .data:000006db 00                               nop
                           .data:000006dc 00                               nop
                           .data:000006dd 00                               nop
                           .data:000006de 00                               nop
                           .data:000006df 3d                               dec a
                           .data:000006e0 00                               nop
                           .data:000006e1 3e 04                            ld a,0x04
                           .data:000006e3 3e 0e                            ld a,0x0e
                           .data:000006e5 30 00                            jr nc,0x06e7
                           .data:000006e7 00                               nop
                           .data:000006e8 00                               nop
                           .data:000006e9 00                               nop
                           .data:000006ea 00                               nop
                           .data:000006eb 00                               nop
                           .data:000006ec 2a 00 2e                         ld hl,(0x2e00)
                           .data:000006ef 0e 2a                            ld c,0x2a
                           .data:000006f1 0e 10                            ld c,0x10
                           .data:000006f3 0e 21                            ld c,0x21
                           .data:000006f5 00                               nop
                           .data:000006f6 00                               nop
                           .data:000006f7 00                               nop
                           .data:000006f8 00                               nop
                           .data:000006f9 00                               nop
                           .data:000006fa 13                               inc de
                           .data:000006fb 2d                               dec l
                           .data:000006fc 00                               nop
                           .data:000006fd 2d                               dec l
                           .data:000006fe 3f                               ccf
                           .data:000006ff 2d                               dec l
                           .data:00000700 00                               nop
                           .data:00000701 2d                               dec l
                           .data:00000702 16 00                            ld d,0x00
                           .data:00000704 00                               nop
                           .data:00000705 00                               nop
                           .data:00000706 00                               nop
                           .data:00000707 00                               nop
                           .data:00000708 36 05                            ld (hl),0x05
                           .data:0000070a 29                               add hl,hl
                           .data:0000070b 0e 29                            ld c,0x29
                           .data:0000070d 04                               inc b
                           .data:0000070e 29                               add hl,hl
                           .data:0000070f 14                               inc d
                           .data:00000710 22 00 00                         ld (0x0000),hl
                           .data:00000713 00                               nop
                           .data:00000714 00                               nop
                           .data:00000715 00                               nop
                           .data:00000716 00                               nop
                           .data:00000717 0e 04                            ld c,0x04
                           .data:00000719 13                               inc de
                           .data:0000071a 02                               ld (bc),a
                           .data:0000071b 16 12                            ld d,0x12
                           .data:0000071d 10 00                            djnz 0x071f
                           .data:0000071f 00                               nop
                           .data:00000720 00                               nop
                           .data:00000721 00                               nop
                           .data:00000722 00                               nop
                           .data:00000723 00                               nop
                           .data:00000724 00                               nop
                           .data:00000725 40                               ld b,b
                           .data:00000726 3f                               ccf
                           .data:00000727 00                               nop
                           .data:00000728 3f                               ccf
                           .data:00000729 00                               nop
                           .data:0000072a 3f                               ccf
                           .data:0000072b 29                               add hl,hl
                           .data:0000072c 00                               nop
                           .data:0000072d 00                               nop
                           .data:0000072e 00                               nop
                           .data:0000072f 00                               nop
                           .data:00000730 00                               nop
                           .data:00000731 00                               nop
                           .data:00000732 12                               ld (de),a
                           .data:00000733 41                               ld b,c
                           .data:00000734 13                               inc de
                           .data:00000735 41                               ld b,c
                           .data:00000736 13                               inc de
                           .data:00000737 41                               ld b,c
                           .data:00000738 13                               inc de
                           .data:00000739 27                               daa
                           .data:0000073a 00                               nop
                           .data:0000073b 00                               nop
                           .data:0000073c 00                               nop
                           .data:0000073d 00                               nop
                           .data:0000073e 00                               nop
                           .data:0000073f 00                               nop
                           .data:00000740 00                               nop
                           .data:00000741 06 00                            ld b,0x00
                           .data:00000743 30 00                            jr nc,0x0745
                           .data:00000745 30 00                            jr nc,0x0747
                           .data:00000747 30 2f                            jr nc,0x0778
                           .data:00000749 00                               nop
                           .data:0000074a 00                               nop
                           .data:0000074b 00                               nop
                           .data:0000074c 00                               nop
                           .data:0000074d 00                               nop
                           .data:0000074e 00                               nop
                           .data:0000074f 2f                               cpl
                           .data:00000750 30 00                            jr nc,0x0752
                           .data:00000752 30 00                            jr nc,0x0754
                           .data:00000754 30 00                            jr nc,0x0756
                           .data:00000756 30 00                            jr nc,0x0758
                           .data:00000758 00                               nop
                           .data:00000759 00                               nop
                           .data:0000075a 00                               nop
                           .data:0000075b 00                               nop
                           .data:0000075c 2f                               cpl
                           .data:0000075d 30 00                            jr nc,0x075f
                           .data:0000075f 30 00                            jr nc,0x0761
                           .data:00000761 30 00                            jr nc,0x0763
                           .data:00000763 06 00                            ld b,0x00
                           .data:00000765 00                               nop
                           .data:00000766 00                               nop
                           .data:00000767 00                               nop
                           .data:00000768 00                               nop
                           .data:00000769 00                               nop
                           .data:0000076a 00                               nop
                           .data:0000076b 2f                               cpl
                           .data:0000076c 30 16                            jr nc,0x0784
                           .data:0000076e 30 16                            jr nc,0x0786
                           .data:00000770 30 1e                            jr nc,0x0790
                           .data:00000772 00                               nop
                           .data:00000773 00                               nop
                           .data:00000774 00                               nop
                           .data:00000775 00                               nop
                           .data:00000776 00                               nop
                           .data:00000777 00                               nop
                           .data:00000778 00                               nop
                           .data:00000779 00                               nop
                           .data:0000077a 02                               ld (bc),a
                           .data:0000077b 00                               nop
                           .data:0000077c 2e 0e                            ld l,0x0e
                           .data:0000077e 02                               ld (bc),a
                           .data:0000077f 0e 00                            ld c,0x00
                           .data:00000781 00                               nop
                           .data:00000782 00                               nop
                           .data:00000783 00                               nop
                           .data:00000784 00                               nop
                           .data:00000785 00                               nop
                           .data:00000786 00                               nop
                           .data:00000787 42                               ld b,d
                           .data:00000788 30 37                            jr nc,0x07c1
                           .data:0000078a 30 37                            jr nc,0x07c3
                           .data:0000078c 30 37                            jr nc,0x07c5
                           .data:0000078e 43                               ld b,e
                           .data:0000078f 00                               nop
                           .data:00000790 00                               nop
                           .data:00000791 00                               nop
                           .data:00000792 00                               nop
                           .data:00000793 00                               nop
                           .data:00000794 00                               nop
                           .data:00000795 06 00                            ld b,0x00
                           .data:00000797 13                               inc de
                           .data:00000798 00                               nop
                           .data:00000799 13                               inc de
                           .data:0000079a 00                               nop
                           .data:0000079b 13                               inc de
                           .data:0000079c 27                               daa
                           .data:0000079d 00                               nop
                           .data:0000079e 00                               nop
                           .data:0000079f 00                               nop
                           .data:000007a0 00                               nop
                           .data:000007a1 00                               nop
                           .data:000007a2 00                               nop
                           .data:000007a3 00                               nop
                           .data:000007a4 00                               nop
                           .data:000007a5 13                               inc de
                           .data:000007a6 00                               nop
                           .data:000007a7 44                               ld b,h
                           .data:000007a8 00                               nop
                           .data:000007a9 00                               nop
                           .data:000007aa 00                               nop
                           .data:000007ab 00                               nop
                           .data:000007ac 00                               nop
                           .data:000007ad 00                               nop
                           .data:000007ae 00                               nop
                           .data:000007af 00                               nop
                           .data:000007b0 00                               nop
                           .data:000007b1 37                               scf
                           .data:000007b2 00                               nop
                           .data:000007b3 37                               scf
                           .data:000007b4 13                               inc de
                           .data:000007b5 37                               scf
                           .data:000007b6 45                               ld b,l
                           .data:000007b7 00                               nop
                           .data:000007b8 00                               nop
                           .data:000007b9 00                               nop
                           .data:000007ba 00                               nop
                           .data:000007bb 00                               nop
                           .data:000007bc 00                               nop
                           .data:000007bd 00                               nop
                           .data:000007be 00                               nop
                           .data:000007bf 06 00                            ld b,0x00
                           .data:000007c1 16 00                            ld d,0x00
                           .data:000007c3 1e 46                            ld e,0x46
                           .data:000007c5 10 00                            djnz 0x07c7
                           .data:000007c7 00                               nop
                           .data:000007c8 00                               nop
                           .data:000007c9 00                               nop
                           .data:000007ca 00                               nop
                           .data:000007cb 00                               nop
                           .data:000007cc 00                               nop
                           .data:000007cd 00                               nop
                           .data:000007ce 11 10 00                         ld de,0x0010
                           .data:000007d1 10 00                            djnz 0x07d3
                           .data:000007d3 10 00                            djnz 0x07d5
                           .data:000007d5 00                               nop
                           .data:000007d6 00                               nop
                           .data:000007d7 00                               nop
                           .data:000007d8 00                               nop
                           .data:000007d9 00                               nop
                           .data:000007da 27                               daa
                           .data:000007db 13                               inc de
                           .data:000007dc 00                               nop
                           .data:000007dd 13                               inc de
                           .data:000007de 27                               daa
                           .data:000007df 13                               inc de
                           .data:000007e0 00                               nop
                           .data:000007e1 13                               inc de
                           .data:000007e2 27                               daa
                           .data:000007e3 00                               nop
                           .data:000007e4 00                               nop
                           .data:000007e5 00                               nop
                           .data:000007e6 00                               nop
                           .data:000007e7 00                               nop
                           .data:000007e8 00                               nop
                           .data:000007e9 3d                               dec a
                           .data:000007ea 00                               nop
                           .data:000007eb 13                               inc de
                           .data:000007ec 00                               nop
                           .data:000007ed 13                               inc de
                           .data:000007ee 00                               nop
                           .data:000007ef 13                               inc de
                           .data:000007f0 27                               daa
                           .data:000007f1 00                               nop
                           .data:000007f2 00                               nop
                           .data:000007f3 00                               nop
                           .data:000007f4 00                               nop
                           .data:000007f5 00                               nop
                           .data:000007f6 00                               nop
                           .data:000007f7 2f                               cpl
                           .data:000007f8 30 00                            jr nc,0x07fa
                           .data:000007fa 30 00                            jr nc,0x07fc
                           .data:000007fc 30 2f                            jr nc,0x082d
                           .data:000007fe 00                               nop
                           .data:000007ff 00                               nop
                           .data:00000800 00                               nop
                           .data:00000801 00                               nop
                           .data:00000802 00                               nop
                           .data:00000803 00                               nop
                           .data:00000804 00                               nop
                           .data:00000805 47                               ld b,a
                           .data:00000806 00                               nop
                           .data:00000807 30 00                            jr nc,0x0809
                           .data:00000809 30 00                            jr nc,0x080b
                           .data:0000080b 30 2f                            jr nc,0x083c
                           .data:0000080d 00                               nop
                           .data:0000080e 00                               nop
                           .data:0000080f 00                               nop
                           .data:00000810 00                               nop
                           .data:00000811 00                               nop
                           .data:00000812 2f                               cpl
                           .data:00000813 30 00                            jr nc,0x0815
                           .data:00000815 30 00                            jr nc,0x0817
                           .data:00000817 30 00                            jr nc,0x0819
                           .data:00000819 47                               ld b,a
                           .data:0000081a 00                               nop
                           .data:0000081b 00                               nop
                           .data:0000081c 00                               nop
                           .data:0000081d 00                               nop
                           .data:0000081e 00                               nop
                           .data:0000081f 00                               nop
                           .data:00000820 00                               nop
                           .data:00000821 13                               inc de
                           .data:00000822 27                               daa
                           .data:00000823 00                               nop
                           .data:00000824 02                               ld (bc),a
                           .data:00000825 13                               inc de
                           .data:00000826 00                               nop
                           .data:00000827 13                               inc de
                           .data:00000828 02                               ld (bc),a
                           .data:00000829 00                               nop
                           .data:0000082a 00                               nop
                           .data:0000082b 00                               nop
                           .data:0000082c 00                               nop
                           .data:0000082d 00                               nop
                           .data:0000082e 02                               ld (bc),a
                           .data:0000082f 3e 00                            ld a,0x00
                           .data:00000831 3e 00                            ld a,0x00
                           .data:00000833 3e 00                            ld a,0x00
                           .data:00000835 3e 12                            ld a,0x12
                           .data:00000837 00                               nop
                           .data:00000838 00                               nop
                           .data:00000839 00                               nop
                           .data:0000083a 00                               nop
                           .data:0000083b 00                               nop
                           .data:0000083c 00                               nop
                           .data:0000083d 13                               inc de
                           .data:0000083e 00                               nop
                           .data:0000083f 11 10 13                         ld de,0x1310
                           .data:00000842 10 46                            djnz 0x088a
                           .data:00000844 00                               nop
                           .data:00000845 00                               nop
                           .data:00000846 00                               nop
                           .data:00000847 00                               nop
                           .data:00000848 00                               nop
                           .data:00000849 00                               nop
                           .data:0000084a 00                               nop
                           .data:0000084b 3c                               inc a
                           .data:0000084c 10 00                            djnz 0x084e
                           .data:0000084e 10 00                            djnz 0x0850
                           .data:00000850 10 3c                            djnz 0x088e
                           .data:00000852 10 00                            djnz 0x0854
                           .data:00000854 00                               nop
                           .data:00000855 00                               nop
                           .data:00000856 00                               nop
                           .data:00000857 00                               nop
                           .data:00000858 00                               nop
                           .data:00000859 15                               dec d
                           .data:0000085a 16 12                            ld d,0x12
                           .data:0000085c 10 12                            djnz 0x0870
                           .data:0000085e 16 15                            ld d,0x15
                           .data:00000860 00                               nop
                           .data:00000861 00                               nop
                           .data:00000862 00                               nop
                           .data:00000863 00                               nop
                           .data:00000864 00                               nop
                           .data:00000865 00                               nop
                           .data:00000866 0a                               ld a,(bc)
                           .data:00000867 12                               ld (de),a
                           .data:00000868 10 12                            djnz 0x087c
                           .data:0000086a 16 12                            ld d,0x12
                           .data:0000086c 10 12                            djnz 0x0880
                           .data:0000086e 0a                               ld a,(bc)
                           .data:0000086f 00                               nop
                           .data:00000870 00                               nop
                           .data:00000871 00                               nop
                           .data:00000872 00                               nop
                           .data:00000873 00                               nop
                           .data:00000874 00                               nop
                           .data:00000875 30 29                            jr nc,0x08a0
                           .data:00000877 16 00                            ld d,0x00
                           .data:00000879 16 29                            ld d,0x29
                           .data:0000087b 30 00                            jr nc,0x087d
                           .data:0000087d 00                               nop
                           .data:0000087e 00                               nop
                           .data:0000087f 00                               nop
                           .data:00000880 00                               nop
                           .data:00000881 00                               nop
                           .data:00000882 48                               ld c,b
                           .data:00000883 02                               ld (bc),a
                           .data:00000884 49                               ld c,c
                           .data:00000885 4a                               ld c,d
                           .data:00000886 10 12                            djnz 0x089a
                           .data:00000888 16 02                            ld d,0x02
                           .data:0000088a 13                               inc de
                           .data:0000088b 00                               nop
                           .data:0000088c 00                               nop
                           .data:0000088d 00                               nop
                           .data:0000088e 00                               nop
                           .data:0000088f 00                               nop
                           .data:00000890 00                               nop
                           .data:00000891 30 12                            jr nc,0x08a5
                           .data:00000893 3e 00                            ld a,0x00
                           .data:00000895 3e 02                            ld a,0x02
                           .data:00000897 30 00                            jr nc,0x0899
                           .data:00000899 00                               nop
                           .data:0000089a 00                               nop
                           .data:0000089b 00                               nop
                           .data:0000089c 00                               nop
                           .data:0000089d 00                               nop
                           .data:0000089e 12                               ld (de),a
                           .data:0000089f 1f                               rra
                           .data:000008a0 13                               inc de
                           .data:000008a1 41                               ld b,c
                           .data:000008a2 13                               inc de
                           .data:000008a3 41                               ld b,c
                           .data:000008a4 24                               inc h
                           .data:000008a5 27                               daa
                           .data:000008a6 00                               nop
                           .data:000008a7 00                               nop
                           .data:000008a8 00                               nop
                           .data:000008a9 00                               nop
                           .data:000008aa 00                               nop
                           .data:000008ab 00                               nop
                           .data:000008ac 00                               nop
                           .data:000008ad 2f                               cpl
                           .data:000008ae 20 00                            jr nz,0x08b0
                           .data:000008b0 30 00                            jr nc,0x08b2
                           .data:000008b2 20 2f                            jr nz,0x08e3
                           .data:000008b4 00                               nop
                           .data:000008b5 00                               nop
                           .data:000008b6 00                               nop
                           .data:000008b7 00                               nop
                           .data:000008b8 00                               nop
                           .data:000008b9 00                               nop
                           .data:000008ba 00                               nop
                           .data:000008bb 3c                               inc a
                           .data:000008bc 0c                               inc c
                           .data:000008bd 00                               nop
                           .data:000008be 10 00                            djnz 0x08c0
                           .data:000008c0 0c                               inc c
                           .data:000008c1 3c                               inc a
                           .data:000008c2 10 00                            djnz 0x08c4
                           .data:000008c4 00                               nop
                           .data:000008c5 00                               nop
                           .data:000008c6 00                               nop
                           .data:000008c7 00                               nop
                           .data:000008c8 00                               nop
                           .data:000008c9 2f                               cpl
                           .data:000008ca 21 00 0c                         ld hl,0x0c00
                           .data:000008cd 00                               nop
                           .data:000008ce 21 2f 10                         ld hl,0x102f
                           .data:000008d1 00                               nop
                           .data:000008d2 00                               nop
                           .data:000008d3 00                               nop
                           .data:000008d4 00                               nop
                           .data:000008d5 00                               nop
                           .data:000008d6 00                               nop
                           .data:000008d7 3d                               dec a
                           .data:000008d8 04                               inc b
                           .data:000008d9 24                               inc h
                           .data:000008da 00                               nop
                           .data:000008db 20 40                            jr nz,0x091d
                           .data:000008dd 09                               add hl,bc
                           .data:000008de 00                               nop
                           .data:000008df 00                               nop
                           .data:000008e0 00                               nop
                           .data:000008e1 00                               nop
                           .data:000008e2 00                               nop
                           .data:000008e3 00                               nop
                           .data:000008e4 00                               nop
                           .data:000008e5 2f                               cpl
                           .data:000008e6 30 00                            jr nc,0x08e8
                           .data:000008e8 4b                               ld c,e
                           .data:000008e9 4a                               ld c,d
                           .data:000008ea 30 00                            jr nc,0x08ec
                           .data:000008ec 30 00                            jr nc,0x08ee
                           .data:000008ee 00                               nop
                           .data:000008ef 00                               nop
                           .data:000008f0 00                               nop
                           .data:000008f1 00                               nop
                           .data:000008f2 00                               nop
                           .data:000008f3 2f                               cpl
                           .data:000008f4 30 14                            jr nc,0x090a
                           .data:000008f6 30 05                            jr nc,0x08fd
                           .data:000008f8 30 1e                            jr nc,0x0918
                           .data:000008fa 00                               nop
                           .data:000008fb 00                               nop
                           .data:000008fc 00                               nop
                           .data:000008fd 00                               nop
                           .data:000008fe 00                               nop
                           .data:000008ff 00                               nop
                           .data:00000900 00                               nop
                           .data:00000901 09                               add hl,bc
                           .data:00000902 07                               rlca
                           .data:00000903 00                               nop
                           .data:00000904 25                               dec h
                           .data:00000905 00                               nop
                           .data:00000906 2a 09 00                         ld hl,(0x0009)
                           .data:00000909 00                               nop
                           .data:0000090a 00                               nop
                           .data:0000090b 00                               nop
                           .data:0000090c 00                               nop
                           .data:0000090d 00                               nop
                           .data:0000090e 00                               nop
                           .data:0000090f 02                               ld (bc),a
                           .data:00000910 00                               nop
                           .data:00000911 32 0c 00                         ld (0x000c),a
                           .data:00000914 0c                               inc c
                           .data:00000915 00                               nop
                           .data:00000916 00                               nop
                           .data:00000917 00                               nop
                           .data:00000918 00                               nop
                           .data:00000919 00                               nop
                           .data:0000091a 00                               nop
                           .data:0000091b 00                               nop
                           .data:0000091c 12                               ld (de),a
                           .data:0000091d 41                               ld b,c
                           .data:0000091e 24                               inc h
                           .data:0000091f 41                               ld b,c
                           .data:00000920 08                               ex af,af'
                           .data:00000921 41                               ld b,c
                           .data:00000922 13                               inc de
                           .data:00000923 27                               daa
                           .data:00000924 00                               nop
                           .data:00000925 00                               nop
                           .data:00000926 00                               nop
                           .data:00000927 00                               nop
                           .data:00000928 00                               nop
                           .data:00000929 00                               nop
                           .data:0000092a 12                               ld (de),a
                           .data:0000092b 3e 00                            ld a,0x00
                           .data:0000092d 3e 29                            ld a,0x29
                           .data:0000092f 3e 00                            ld a,0x00
                           .data:00000931 3e 02                            ld a,0x02
                           .data:00000933 00                               nop
                           .data:00000934 00                               nop
                           .data:00000935 00                               nop
                           .data:00000936 00                               nop
                           .data:00000937 00                               nop
                           .data:00000938 0b                               dec bc
                           .data:00000939 1f                               rra
                           .data:0000093a 13                               inc de
                           .data:0000093b 1f                               rra
                           .data:0000093c 13                               inc de
                           .data:0000093d 4c                               ld c,h
                           .data:0000093e 13                               inc de
                           .data:0000093f 4d                               ld c,l
                           .data:00000940 0e 00                            ld c,0x00
                           .data:00000942 00                               nop
                           .data:00000943 00                               nop
                           .data:00000944 00                               nop
                           .data:00000945 00                               nop
                           .data:00000946 00                               nop
                           .data:00000947 00                               nop
                           .data:00000948 00                               nop
                           .data:00000949 00                               nop
                           .data:0000094a 06 00                            ld b,0x00
                           .data:0000094c 00                               nop
                           .data:0000094d 00                               nop
                           .data:0000094e 00                               nop
                           .data:0000094f 00                               nop
                           .data:00000950 00                               nop
                           .data:00000951 00                               nop
                           .data:00000952 00                               nop
                           .data:00000953 00                               nop
                           .data:00000954 4d                               ld c,l
                           .data:00000955 0e 02                            ld c,0x02
                           .data:00000957 0e 02                            ld c,0x02
                           .data:00000959 04                               inc b
                           .data:0000095a 02                               ld (bc),a
                           .data:0000095b 4e                               ld c,(hl)
                           .data:0000095c 0e 00                            ld c,0x00
                           .data:0000095e 00                               nop
                           .data:0000095f 00                               nop
                           .data:00000960 00                               nop
                           .data:00000961 00                               nop
                           .data:00000962 00                               nop
                           .data:00000963 2f                               cpl
                           .data:00000964 30 0e                            jr nc,0x0974
                           .data:00000966 30 04                            jr nc,0x096c
                           .data:00000968 30 2f                            jr nc,0x0999
                           .data:0000096a 00                               nop
                           .data:0000096b 00                               nop
                           .data:0000096c 00                               nop
                           .data:0000096d 00                               nop
                           .data:0000096e 00                               nop
                           .data:0000096f 00                               nop
                           .data:00000970 00                               nop
                           .data:00000971 00                               nop
                           .data:00000972 13                               inc de
                           .data:00000973 0e 3d                            ld c,0x3d
                           .data:00000975 04                               inc b
                           .data:00000976 00                               nop
                           .data:00000977 00                               nop
                           .data:00000978 00                               nop
                           .data:00000979 00                               nop
                           .data:0000097a 00                               nop
                           .data:0000097b 00                               nop
                           .data:0000097c 00                               nop
                           .data:0000097d 00                               nop
                           .data:0000097e 04                               inc b
                           .data:0000097f 4f                               ld c,a
                           .data:00000980 30 0e                            jr nc,0x0990
                           .data:00000982 30 04                            jr nc,0x0988
                           .data:00000984 30 50                            jr nc,0x09d6
                           .data:00000986 0e 00                            ld c,0x00
                           .data:00000988 00                               nop
                           .data:00000989 00                               nop
                           .data:0000098a 00                               nop
                           .data:0000098b 00                               nop
                           .data:0000098c 12                               ld (de),a
                           .data:0000098d 41                               ld b,c
                           .data:0000098e 08                               ex af,af'
                           .data:0000098f 1f                               rra
                           .data:00000990 13                               inc de
                           .data:00000991 1f                               rra
                           .data:00000992 08                               ex af,af'
                           .data:00000993 27                               daa
                           .data:00000994 00                               nop
                           .data:00000995 00                               nop
                           .data:00000996 00                               nop
                           .data:00000997 00                               nop
                           .data:00000998 00                               nop
                           .data:00000999 00                               nop
                           .data:0000099a 00                               nop
                           .data:0000099b 2f                               cpl
                           .data:0000099c 30 05                            jr nc,0x09a3
                           .data:0000099e 30 14                            jr nc,0x09b4
                           .data:000009a0 30 1e                            jr nc,0x09c0
                           .data:000009a2 00                               nop
                           .data:000009a3 00                               nop
                           .data:000009a4 00                               nop
                           .data:000009a5 00                               nop
                           .data:000009a6 00                               nop
                           .data:000009a7 00                               nop
                           .data:000009a8 00                               nop
                           .data:000009a9 00                               nop
                           .data:000009aa 0c                               inc c
                           .data:000009ab 00                               nop
                           .data:000009ac 0c                               inc c
                           .data:000009ad 32 00 02                         ld (0x0200),a
                           .data:000009b0 00                               nop
                           .data:000009b1 00                               nop
                           .data:000009b2 00                               nop
                           .data:000009b3 00                               nop
                           .data:000009b4 00                               nop
                           .data:000009b5 00                               nop
                           .data:000009b6 16 29                            ld d,0x29
                           .data:000009b8 30 12                            jr nc,0x09cc
                           .data:000009ba 3e 02                            ld a,0x02
                           .data:000009bc 30 29                            jr nc,0x09e7
                           .data:000009be 16 00                            ld d,0x00
                           .data:000009c0 00                               nop
                           .data:000009c1 00                               nop
                           .data:000009c2 00                               nop
                           .data:000009c3 00                               nop
                           .data:000009c4 37                               scf
                           .data:000009c5 00                               nop
                           .data:000009c6 37                               scf
                           .data:000009c7 00                               nop
                           .data:000009c8 37                               scf
                           .data:000009c9 00                               nop
                           .data:000009ca 37                               scf
                           .data:000009cb 00                               nop
                           .data:000009cc 37                               scf
                           .data:000009cd 00                               nop
                           .data:000009ce 00                               nop
                           .data:000009cf 00                               nop
                           .data:000009d0 00                               nop
                           .data:000009d1 00                               nop
                           .data:000009d2 3f                               ccf
                           .data:000009d3 00                               nop
                           .data:000009d4 00                               nop
                           .data:000009d5 00                               nop
                           .data:000009d6 3f                               ccf
                           .data:000009d7 00                               nop
                           .data:000009d8 00                               nop
                           .data:000009d9 00                               nop
                           .data:000009da 3f                               ccf
                           .data:000009db 00                               nop
                           .data:000009dc 00                               nop
                           .data:000009dd 00                               nop
                           .data:000009de 00                               nop
                           .data:000009df 00                               nop
                           .data:000009e0 00                               nop
                           .data:000009e1 0a                               ld a,(bc)
                           .data:000009e2 0b                               dec bc
                           .data:000009e3 0c                               inc c
                           .data:000009e4 37                               scf
                           .data:000009e5 51                               ld d,c
                           .data:000009e6 00                               nop
                           .data:000009e7 0c                               inc c
                           .data:000009e8 0b                               dec bc
                           .data:000009e9 00                               nop
                           .data:000009ea 00                               nop
                           .data:000009eb 00                               nop
                           .data:000009ec 00                               nop
                           .data:000009ed 00                               nop
                           .data:000009ee 4d                               ld c,l
                           .data:000009ef 0e 02                            ld c,0x02
                           .data:000009f1 0e 16                            ld c,0x16
                           .data:000009f3 04                               inc b
                           .data:000009f4 12                               ld (de),a
                           .data:000009f5 04                               inc b
                           .data:000009f6 0f                               rrca
                           .data:000009f7 00                               nop
                           .data:000009f8 00                               nop
                           .data:000009f9 00                               nop
                           .data:000009fa 00                               nop
                           .data:000009fb 00                               nop
                           .data:000009fc 50                               ld d,b
                           .data:000009fd 20 00                            jr nz,0x09ff
                           .data:000009ff 20 00                            jr nz,0x0a01
                           .data:00000a01 19                               add hl,de
                           .data:00000a02 00                               nop
                           .data:00000a03 19                               add hl,de
                           .data:00000a04 4f                               ld c,a
                           .data:00000a05 00                               nop
                           .data:00000a06 00                               nop
                           .data:00000a07 00                               nop
                           .data:00000a08 00                               nop
                           .data:00000a09 00                               nop
                           .data:00000a0a 00                               nop
                           .data:00000a0b 3c                               inc a
                           .data:00000a0c 0c                               inc c
                           .data:00000a0d 00                               nop
                           .data:00000a0e 10 00                            djnz 0x0a10
                           .data:00000a10 0c                               inc c
                           .data:00000a11 3c                               inc a
                           .data:00000a12 10 00                            djnz 0x0a14
                           .data:00000a14 00                               nop
                           .data:00000a15 00                               nop
                           .data:00000a16 00                               nop
                           .data:00000a17 00                               nop
                           .data:00000a18 00                               nop
                           .data:00000a19 3c                               inc a
                           .data:00000a1a 0c                               inc c
                           .data:00000a1b 00                               nop
                           .data:00000a1c 21 00 10                         ld hl,0x1000
                           .data:00000a1f 3c                               inc a
                           .data:00000a20 10 00                            djnz 0x0a22
                           .data:00000a22 00                               nop
                           .data:00000a23 00                               nop
                           .data:00000a24 00                               nop
                           .data:00000a25 00                               nop
                           .data:00000a26 00                               nop
                           .data:00000a27 09                               add hl,bc
                           .data:00000a28 25                               dec h
                           .data:00000a29 00                               nop
                           .data:00000a2a 07                               rlca
                           .data:00000a2b 00                               nop
                           .data:00000a2c 25                               dec h
                           .data:00000a2d 09                               add hl,bc
                           .data:00000a2e 00                               nop
                           .data:00000a2f 00                               nop
                           .data:00000a30 00                               nop
                           .data:00000a31 00                               nop
                           .data:00000a32 00                               nop
                           .data:00000a33 00                               nop
                           .data:00000a34 00                               nop
                           .data:00000a35 00                               nop
                           .data:00000a36 40                               ld b,b
                           .data:00000a37 00                               nop
                           .data:00000a38 0f                               rrca
                           .data:00000a39 00                               nop
                           .data:00000a3a 04                               inc b
                           .data:00000a3b 00                               nop
                           .data:00000a3c 00                               nop
                           .data:00000a3d 00                               nop
                           .data:00000a3e 00                               nop
                           .data:00000a3f 00                               nop
                           .data:00000a40 00                               nop
                           .data:00000a41 00                               nop
                           .data:00000a42 00                               nop
                           .data:00000a43 2f                               cpl
                           .data:00000a44 19                               add hl,de
                           .data:00000a45 16 20                            ld d,0x20
                           .data:00000a47 16 19                            ld d,0x19
                           .data:00000a49 1e 00                            ld e,0x00
                           .data:00000a4b 00                               nop
                           .data:00000a4c 00                               nop
                           .data:00000a4d 00                               nop
                           .data:00000a4e 00                               nop
                           .data:00000a4f 00                               nop
                           .data:00000a50 12                               ld (de),a
                           .data:00000a51 41                               ld b,c
                           .data:00000a52 08                               ex af,af'
                           .data:00000a53 41                               ld b,c
                           .data:00000a54 24                               inc h
                           .data:00000a55 41                               ld b,c
                           .data:00000a56 08                               ex af,af'
                           .data:00000a57 27                               daa
                           .data:00000a58 00                               nop
                           .data:00000a59 00                               nop
                           .data:00000a5a 00                               nop
                           .data:00000a5b 00                               nop
                           .data:00000a5c 00                               nop
                           .data:00000a5d 00                               nop
                           .data:00000a5e 00                               nop
                           .data:00000a5f 00                               nop
                           .data:00000a60 04                               inc b
                           .data:00000a61 24                               inc h
                           .data:00000a62 00                               nop
                           .data:00000a63 24                               inc h
                           .data:00000a64 04                               inc b
                           .data:00000a65 00                               nop
                           .data:00000a66 00                               nop
                           .data:00000a67 00                               nop
                           .data:00000a68 00                               nop
                           .data:00000a69 00                               nop
                           .data:00000a6a 00                               nop
                           .data:00000a6b 00                               nop
                           .data:00000a6c 00                               nop
                           .data:00000a6d 00                               nop
                           .data:00000a6e 04                               inc b
                           .data:00000a6f 00                               nop
                           .data:00000a70 0e 00                            ld c,0x00
                           .data:00000a72 04                               inc b
                           .data:00000a73 00                               nop
                           .data:00000a74 00                               nop
                           .data:00000a75 00                               nop
                           .data:00000a76 00                               nop
                           .data:00000a77 00                               nop
                           .data:00000a78 00                               nop
                           .data:00000a79 00                               nop
                           .data:00000a7a 00                               nop
                           .data:00000a7b 00                               nop
                           .data:00000a7c 00                               nop
                           .data:00000a7d 0e 00                            ld c,0x00
                           .data:00000a7f 04                               inc b
                           .data:00000a80 00                               nop
                           .data:00000a81 00                               nop
                           .data:00000a82 00                               nop
                           .data:00000a83 00                               nop
                           .data:00000a84 00                               nop
                           .data:00000a85 00                               nop
                           .data:00000a86 00                               nop
                           .data:00000a87 00                               nop
                           .data:00000a88 04                               inc b
                           .data:00000a89 0e 00                            ld c,0x00
                           .data:00000a8b 0e 00                            ld c,0x00
                           .data:00000a8d 04                               inc b
                           .data:00000a8e 00                               nop
                           .data:00000a8f 04                               inc b
                           .data:00000a90 0e 00                            ld c,0x00
                           .data:00000a92 00                               nop
                           .data:00000a93 00                               nop
                           .data:00000a94 00                               nop
                           .data:00000a95 00                               nop
                           .data:00000a96 52                               ld d,d
                           .data:00000a97 00                               nop
                           .data:00000a98 53                               ld d,e
                           .data:00000a99 00                               nop
                           .data:00000a9a 13                               inc de
                           .data:00000a9b 00                               nop
                           .data:00000a9c 36 00                            ld (hl),0x00
                           .data:00000a9e 22 00 00                         ld (0x0000),hl
                           .data:00000aa1 00                               nop
                           .data:00000aa2 00                               nop
                           .data:00000aa3 00                               nop
                           .data:00000aa4 02                               ld (bc),a
                           .data:00000aa5 00                               nop
                           .data:00000aa6 03                               inc bc
                           .data:00000aa7 00                               nop
                           .data:00000aa8 0b                               dec bc
                           .data:00000aa9 00                               nop
                           .data:00000aaa 03                               inc bc
                           .data:00000aab 00                               nop
                           .data:00000aac 02                               ld (bc),a
                           .data:00000aad 00                               nop
                           .data:00000aae 00                               nop
                           .data:00000aaf 00                               nop
                           .data:00000ab0 00                               nop
                           .data:00000ab1 00                               nop
                           .data:00000ab2 15                               dec d
                           .data:00000ab3 16 00                            ld d,0x00
                           .data:00000ab5 16 02                            ld d,0x02
                           .data:00000ab7 13                               inc de
                           .data:00000ab8 00                               nop
                           .data:00000ab9 13                               inc de
                           .data:00000aba 1e 00                            ld e,0x00
                           .data:00000abc 00                               nop
                           .data:00000abd 00                               nop
                           .data:00000abe 00                               nop
                           .data:00000abf 00                               nop
                           .data:00000ac0 54                               ld d,h
                           .data:00000ac1 00                               nop
                           .data:00000ac2 55                               ld d,l
                           .data:00000ac3 00                               nop
                           .data:00000ac4 56                               ld d,(hl)
                           .data:00000ac5 00                               nop
                           .data:00000ac6 55                               ld d,l
                           .data:00000ac7 00                               nop
                           .data:00000ac8 54                               ld d,h
                           .data:00000ac9 00                               nop
                           .data:00000aca 00                               nop
                           .data:00000acb 00                               nop
                           .data:00000acc 00                               nop
                           .data:00000acd 00                               nop
                           .data:00000ace 57                               ld d,a
                           .data:00000acf 0b                               dec bc
                           .data:00000ad0 58                               ld e,b
                           .data:00000ad1 00                               nop
                           .data:00000ad2 37                               scf
                           .data:00000ad3 06 37                            ld b,0x37
                           .data:00000ad5 05                               dec b
                           .data:00000ad6 59                               ld e,c
                           .data:00000ad7 00                               nop
                           .data:00000ad8 00                               nop
                           .data:00000ad9 00                               nop
                           .data:00000ada 00                               nop
                           .data:00000adb 00                               nop
                           .data:00000adc 54                               ld d,h
                           .data:00000add 00                               nop
                           .data:00000ade 5a                               ld e,d
                           .data:00000adf 03                               inc bc
                           .data:00000ae0 54                               ld d,h
                           .data:00000ae1 03                               inc bc
                           .data:00000ae2 5a                               ld e,d
                           .data:00000ae3 00                               nop
                           .data:00000ae4 54                               ld d,h
                           .data:00000ae5 00                               nop
                           .data:00000ae6 00                               nop
                           .data:00000ae7 00                               nop
                           .data:00000ae8 00                               nop
                           .data:00000ae9 00                               nop
                           .data:00000aea 0a                               ld a,(bc)
                           .data:00000aeb 0b                               dec bc
                           .data:00000aec 0c                               inc c
                           .data:00000aed 00                               nop
                           .data:00000aee 00                               nop
                           .data:00000aef 06 00                            ld b,0x00
                           .data:00000af1 05                               dec b
                           .data:00000af2 5b                               ld e,e
                           .data:00000af3 00                               nop
                           .data:00000af4 00                               nop
                           .data:00000af5 00                               nop
                           .data:00000af6 00                               nop
                           .data:00000af7 00                               nop
                           .data:00000af8 00                               nop
                           .data:00000af9 00                               nop
                           .data:00000afa 0e 00                            ld c,0x00
                           .data:00000afc 00                               nop
                           .data:00000afd 00                               nop
                           .data:00000afe 0e 00                            ld c,0x00
                           .data:00000b00 00                               nop
                           .data:00000b01 00                               nop
                           .data:00000b02 00                               nop
                           .data:00000b03 00                               nop
                           .data:00000b04 00                               nop
                           .data:00000b05 00                               nop
                           .data:00000b06 00                               nop
                           .data:00000b07 00                               nop
                           .data:00000b08 00                               nop
                           .data:00000b09 04                               inc b
                           .data:00000b0a 00                               nop
                           .data:00000b0b 0e 00                            ld c,0x00
                           .data:00000b0d 00                               nop
                           .data:00000b0e 00                               nop
                           .data:00000b0f 00                               nop
                           .data:00000b10 00                               nop
                           .data:00000b11 00                               nop
                           .data:00000b12 00                               nop
                           .data:00000b13 00                               nop
                           .data:00000b14 00                               nop
                           .data:00000b15 00                               nop
                           .data:00000b16 00                               nop
                           .data:00000b17 70                               ld (hl),b
                           .data:00000b18 00                               nop
                           .data:00000b19 00                               nop
                           .data:00000b1a 08                               ex af,af'
                           .data:00000b1b 00                               nop
                           .data:00000b1c 00                               nop
                           .data:00000b1d 14                               inc d
                           .data:00000b1e 00                               nop
                           .data:00000b1f 00                               nop
                           .data:00000b20 02                               ld (bc),a
                           .data:00000b21 00                               nop
                           .data:00000b22 00                               nop
                           .data:00000b23 11 00 00                         ld de,0x0000
                           .data:00000b26 7f                               ld a,a
                           .data:00000b27 00                               nop
                           .data:00000b28 00                               nop
                           .data:00000b29 49                               ld c,c
                           .data:00000b2a 00                               nop
                           .data:00000b2b 00                               nop
                           .data:00000b2c 06 00                            ld b,0x00
                           .data:00000b2e 00                               nop
                           .data:00000b2f 30 00                            jr nc,0x0b31
                           .data:00000b31 00                               nop
                           .data:00000b32 1c                               inc e
                           .data:00000b33 00                               nop
                           .data:00000b34 00                               nop
                           .data:00000b35 22 00 00                         ld (0x0000),hl
                           .data:00000b38 41                               ld b,c
                           .data:00000b39 00                               nop
                           .data:00000b3a 00                               nop
                           .data:00000b3b 09                               add hl,bc
                           .data:00000b3c 00                               nop
                           .data:00000b3d 00                               nop
                           .data:00000b3e 01 00 00                         ld bc,0x0000
                           .data:00000b41 79                               ld a,c
                           .data:00000b42 00                               nop
                           .data:00000b43 00                               nop
                           .data:00000b44 40                               ld b,b
                           .data:00000b45 00                               nop
                           .data:00000b46 00                               nop
                           .data:00000b47 3f                               ccf
                           .data:00000b48 00                               nop
                           .data:00000b49 00                               nop
                           .data:00000b4a 20 00                            jr nz,0x0b4c
                           .data:00000b4c 00                               nop
                           .data:00000b4d 04                               inc b
                           .data:00000b4e 00                               nop
                           .data:00000b4f 00                               nop
                           .data:00000b50 12                               ld (de),a
                           .data:00000b51 00                               nop
                           .data:00000b52 00                               nop
                           .data:00000b53 0c                               inc c
                           .data:00000b54 00                               nop
                           .data:00000b55 00                               nop
                           .data:00000b56 10 00                            djnz 0x0b58
                           .data:00000b58 00                               nop
                           .data:00000b59 5c                               ld e,h
                           .data:00000b5a 00                               nop
                           .data:00000b5b 00                               nop
                           .data:00000b5c 29                               add hl,hl
                           .data:00000b5d 00                               nop
                           .data:00000b5e 00                               nop
                           .data:00000b5f 46                               ld b,(hl)
                           .data:00000b60 00                               nop
                           .data:00000b61 00                               nop
                           .data:00000b62 26 00                            ld h,0x00
                           .data:00000b64 00                               nop
                           .data:00000b65 32 00 00                         ld (0x0000),a
                           .data:00000b68 1f                               rra
                           .data:00000b69 00                               nop
                           .data:00000b6a 00                               nop
                           .data:00000b6b 07                               rlca
                           .data:00000b6c 00                               nop
                           .data:00000b6d 00                               nop
                           .data:00000b6e 18 00                            jr 0x0b70
                           .data:00000b70 00                               nop
                           .data:00000b71 51                               ld d,c
                           .data:00000b72 00                               nop
                           .data:00000b73 00                               nop
                           .data:00000b74 45                               ld b,l
                           .data:00000b75 00                               nop
                           .data:00000b76 00                               nop
                           .data:00000b77 42                               ld b,d
                           .data:00000b78 00                               nop
                           .data:00000b79 00                               nop
                           .data:00000b7a 61                               ld h,c
                           .data:00000b7b 00                               nop
                           .data:00000b7c 00                               nop
                           .data:00000b7d 21 00 00                         ld hl,0x0000
                           .data:00000b80 05                               dec b
                           .data:00000b81 00                               nop
                           .data:00000b82 00                               nop
                           .data:00000b83 4a                               ld c,d
                           .data:00000b84 00                               nop
                           .data:00000b85 00                               nop
                           .data:00000b86 31 00 00                         ld sp,0x0000
                           .data:00000b89 78                               ld a,b
                           .data:00000b8a 00                               nop
                           .data:00000b8b 00                               nop
                           .data:00000b8c 47                               ld b,a
                           .data:00000b8d 00                               nop
                           .data:00000b8e 00                               nop
                           .data:00000b8f 28 00                            jr z,0x0b91
                           .data:00000b91 00                               nop
                           .data:00000b92 48                               ld c,b
                           .data:00000b93 00                               nop
                           .data:00000b94 00                               nop
                           .data:00000b95 60                               ld h,b
                           .data:00000b96 00                               nop
                           .data:00000b97 00                               nop
                           .data:00000b98 3e 00                            ld a,0x00
                           .data:00000b9a 00                               nop
                           .data:00000b9b 2a 00 00                         ld hl,(0x0000)
                           .data:00000b9e 7e                               ld a,(hl)
                           .data:00000b9f 00                               nop
                           .data:00000ba0 00                               nop
                           .data:00000ba1 38 00                            jr c,0x0ba3
                           .data:00000ba3 00                               nop
                           .data:00000ba4 44                               ld b,h
                           .data:00000ba5 00                               nop
                           .data:00000ba6 00                               nop
                           .data:00000ba7 4f                               ld c,a
                           .data:00000ba8 00                               nop
                           .data:00000ba9 00                               nop
                           .data:00000baa 36 00                            ld (hl),0x00
                           .data:00000bac 00                               nop
                           .data:00000bad 63                               ld h,e
                           .data:00000bae 00                               nop
                           .data:00000baf 00                               nop
                           .data:00000bb0 03                               inc bc
                           .data:00000bb1 00                               nop
                           .data:00000bb2 00                               nop
                           .data:00000bb3 23                               inc hl
                           .data:00000bb4 00                               nop
                           .data:00000bb5 00                               nop
                           .data:00000bb6 62                               ld h,d
                           .data:00000bb7 00                               nop
                           .data:00000bb8 00                               nop
                           .data:00000bb9 00                               nop
                           .data:00000bba 00                               nop
                           .data:00000bbb 01 e0 00                         ld bc,0x00e0
                           .data:00000bbe 00                               nop
                           .data:00000bbf 6c                               ld l,h
                           .data:00000bc0 00                               nop
                           .data:00000bc1 00                               nop
                           .data:00000bc2 ec 00 00                         call pe,0x0000
                           .data:00000bc5 15                               dec d
                           .data:00000bc6 00                               nop
                           .data:00000bc7 00                               nop
                           .data:00000bc8 3c                               inc a
                           .data:00000bc9 00                               nop
                           .data:00000bca 00                               nop
                           .data:00000bcb 7c                               ld a,h
                           .data:00000bcc 00                               nop
                           .data:00000bcd 00                               nop
                           .data:00000bce 54                               ld d,h
                           .data:00000bcf 00                               nop
                           .data:00000bd0 00                               nop
                           .data:00000bd1 55                               ld d,l
                           .data:00000bd2 00                               nop
                           .data:00000bd3 00                               nop
                           .data:00000bd4 0a                               ld a,(bc)
                           .data:00000bd5 00                               nop
                           .data:00000bd6 00                               nop
                           .data:00000bd7 50                               ld d,b
                           .data:00000bd8 00                               nop
                           .data:00000bd9 00                               nop
                           .data:00000bda 38 00                            jr c,0x0bdc
                           .data:00000bdc 01 fc 00                         ld bc,0x00fc
                           .data:00000bdf 00                               nop
                           .data:00000be0 7d                               ld a,l
                           .data:00000be1 00                               nop
                           .data:00000be2 00                               nop
                           .data:00000be3 fd                               defb 0xfd
                           .data:00000be4 00                               nop
                           .data:00000be5 00                               nop
                           .data:00000be6 24                               inc h
                           .data:00000be7 00                               nop
                           .data:00000be8 00                               nop
                           .data:00000be9 fc 00 01                         call m,0x0100
                           .data:00000bec 04                               inc b
                           .data:00000bed 00                               nop
                           .data:00000bee 01 10 00                         ld bc,0x0010
                           .data:00000bf1 01 a0 00                         ld bc,0x00a0
                           .data:00000bf4 00                               nop
                           .data:00000bf5 44                               ld b,h
                           .data:00000bf6 00                               nop
                           .data:00000bf7 01 52 00                         ld bc,0x0052
                           .data:00000bfa 00                               nop
                           .data:00000bfb 7a                               ld a,d
                           .data:00000bfc 00                               nop
                           .data:00000bfd 00                               nop
                           .data:00000bfe 72                               ld (hl),d
                           .data:00000bff 00                               nop
                           .data:00000c00 00                               nop
                           .data:00000c01 39                               add hl,sp
                           .data:00000c02 00                               nop
                           .data:00000c03 00                               nop
                           .data:00000c04 3a 00 00                         ld a,(0x0000)
                           .data:00000c07 c1                               pop bc
                           .data:00000c08 00                               nop
                           .data:00000c09 00                               nop
                           .data:00000c0a 73                               ld (hl),e
                           .data:00000c0b 00                               nop
                           .data:00000c0c 00                               nop
                           .data:00000c0d 6b                               ld l,e
                           .data:00000c0e 00                               nop
                           .data:00000c0f 00                               nop
                           .data:00000c10 08                               ex af,af'
                           .data:00000c11 00                               nop
                           .data:00000c12 01 14 00                         ld bc,0x0014
                           .data:00000c15 01 22 00                         ld bc,0x0022
                           .data:00000c18 01 1c 00                         ld bc,0x001c
                           .data:00000c1b 01 41 00                         ld bc,0x0041
                           .data:00000c1e 01 6e 00                         ld bc,0x006e
                           .data:00000c21 01 2a 00                         ld bc,0x002a
                           .data:00000c24 01 6e 00                         ld bc,0x006e
                           .data:00000c27 00                               nop
                           .data:00000c28 ff                               rst 0x38
                           .data:00000c29 ff                               rst 0x38
                           .data:00000c2a ff                               rst 0x38
                           .data:00000c2b ff                               rst 0x38
                           .data:00000c2c ff                               rst 0x38
                           .data:00000c2d ff                               rst 0x38
                           .data:00000c2e ff                               rst 0x38
                           .data:00000c2f ff                               rst 0x38
                           .data:00000c30 55                               ld d,l
                           .data:00000c31 55                               ld d,l
                           .data:00000c32 55                               ld d,l
                           .data:00000c33 55                               ld d,l
                           .data:00000c34 03                               inc bc
                           .data:00000c35 01 02 04                         ld bc,0x0402
                           .data:00000c38 00                               nop
                           .data:00000c39 00                               nop
                           .data:00000c3a 38 03                            jr c,0x0c3f
                           .data:00000c3c 4b                               ld c,e
                           .data:00000c3d 0d                               dec c
                           .data:00000c3e 5e                               ld e,(hl)
                           .data:00000c3f 02                               ld (bc),a
                           .data:00000c40 38 03                            jr c,0x0c45
                           .data:00000c42 3c                               inc a
                           .data:00000c43 03                               inc bc
                           .data:00000c44 3c                               inc a
                           .data:00000c45 03                               inc bc
                           .data:00000c46 3c                               inc a
                           .data:00000c47 03                               inc bc
                           .data:00000c48 3c                               inc a
                           .data:00000c49 03                               inc bc
                           .data:00000c4a 3c                               inc a
                           .data:00000c4b 03                               inc bc
                           .data:00000c4c 3c                               inc a
                           .data:00000c4d 03                               inc bc
                           .data:00000c4e 3c                               inc a
                           .data:00000c4f 03                               inc bc
                           .data:00000c50 3c                               inc a
                           .data:00000c51 03                               inc bc
                           .data:00000c52 3c                               inc a
                           .data:00000c53 03                               inc bc
                           .data:00000c54 3c                               inc a
                           .data:00000c55 03                               inc bc
                           .data:00000c56 3c                               inc a
                           .data:00000c57 03                               inc bc
                           .data:00000c58 3c                               inc a
                           .data:00000c59 03                               inc bc
                           .data:00000c5a 3c                               inc a
                           .data:00000c5b 03                               inc bc
                           .data:00000c5c 3c                               inc a
                           .data:00000c5d 03                               inc bc
                           .data:00000c5e 3c                               inc a
                           .data:00000c5f 03                               inc bc
                           .data:00000c60 3c                               inc a
                           .data:00000c61 03                               inc bc
                           .data:00000c62 3c                               inc a
                           .data:00000c63 03                               inc bc
                           .data:00000c64 3c                               inc a
                           .data:00000c65 03                               inc bc
                           .data:00000c66 3c                               inc a
                           .data:00000c67 03                               inc bc
                           .data:00000c68 3c                               inc a
                           .data:00000c69 03                               inc bc
                           .data:00000c6a 3c                               inc a
                           .data:00000c6b 03                               inc bc
                           .data:00000c6c 3c                               inc a
                           .data:00000c6d 03                               inc bc
                           .data:00000c6e 3c                               inc a
                           .data:00000c6f 03                               inc bc
                           .data:00000c70 3c                               inc a
                           .data:00000c71 03                               inc bc
                           .data:00000c72 3c                               inc a
                           .data:00000c73 03                               inc bc
                           .data:00000c74 3c                               inc a
                           .data:00000c75 03                               inc bc
                           .data:00000c76 3c                               inc a
                           .data:00000c77 03                               inc bc
                           .data:00000c78 3c                               inc a
                           .data:00000c79 03                               inc bc
                           .data:00000c7a 3c                               inc a
                           .data:00000c7b 03                               inc bc
                           .data:00000c7c 3c                               inc a
                           .data:00000c7d 03                               inc bc
                           .data:00000c7e 3c                               inc a
                           .data:00000c7f 03                               inc bc
                           .data:00000c80 38 03                            jr c,0x0c85
                           .data:00000c82 55                               ld d,l
                           .data:00000c83 03                               inc bc
                           .data:00000c84 5a                               ld e,d
                           .data:00000c85 03                               inc bc
                           .data:00000c86 60                               ld h,b
                           .data:00000c87 02                               ld (bc),a
                           .data:00000c88 68                               ld l,b
                           .data:00000c89 03                               inc bc
                           .data:00000c8a 7f                               ld a,a
                           .data:00000c8b 03                               inc bc
                           .data:00000c8c 93                               sub e
                           .data:00000c8d 03                               inc bc
                           .data:00000c8e ae                               xor (hl)
                           .data:00000c8f 03                               inc bc
                           .data:00000c90 b3                               or e
                           .data:00000c91 03                               inc bc
                           .data:00000c92 bc                               cp h
                           .data:00000c93 03                               inc bc
                           .data:00000c94 c5                               push bc
                           .data:00000c95 03                               inc bc
                           .data:00000c96 da 03 ef                         jp c,0xef03
                           .data:00000c99 03                               inc bc
                           .data:00000c9a f5                               push af
                           .data:00000c9b 03                               inc bc
                           .data:00000c9c 0a                               ld a,(bc)
                           .data:00000c9d 04                               inc b
                           .data:00000c9e 12                               ld (de),a
                           .data:00000c9f 04                               inc b
                           .data:00000ca0 24                               inc h
                           .data:00000ca1 04                               inc b
                           .data:00000ca2 39                               add hl,sp
                           .data:00000ca3 04                               inc b
                           .data:00000ca4 45                               ld b,l
                           .data:00000ca5 04                               inc b
                           .data:00000ca6 5a                               ld e,d
                           .data:00000ca7 04                               inc b
                           .data:00000ca8 6f                               ld l,a
                           .data:00000ca9 04                               inc b
                           .data:00000caa 86                               add a,(hl)
                           .data:00000cab 04                               inc b
                           .data:00000cac 9b                               sbc a,e
                           .data:00000cad 04                               inc b
                           .data:00000cae b0                               or b
                           .data:00000caf 04                               inc b
                           .data:00000cb0 c5                               push bc
                           .data:00000cb1 04                               inc b
                           .data:00000cb2 da 04 ef                         jp c,0xef04
                           .data:00000cb5 04                               inc b
                           .data:00000cb6 f7                               rst 0x30
                           .data:00000cb7 04                               inc b
                           .data:00000cb8 ff                               rst 0x38
                           .data:00000cb9 04                               inc b
                           .data:00000cba 13                               inc de
                           .data:00000cbb 05                               dec b
                           .data:00000cbc 27                               daa
                           .data:00000cbd 05                               dec b
                           .data:00000cbe 3b                               dec sp
                           .data:00000cbf 05                               dec b
                           .data:00000cc0 48                               ld c,b
                           .data:00000cc1 02                               ld (bc),a
                           .data:00000cc2 50                               ld d,b
                           .data:00000cc3 05                               dec b
                           .data:00000cc4 ba                               cp d
                           .data:00000cc5 05                               dec b
                           .data:00000cc6 d0                               ret nc
                           .data:00000cc7 05                               dec b
                           .data:00000cc8 00                               nop
                           .data:00000cc9 06 17                            ld b,0x17
                           .data:00000ccb 06 45                            ld b,0x45
                           .data:00000ccd 06 5c                            ld b,0x5c
                           .data:00000ccf 06 74                            ld b,0x74
                           .data:00000cd1 06 8b                            ld b,0x8b
                           .data:00000cd3 06 9c                            ld b,0x9c
                           .data:00000cd5 06 b2                            ld b,0xb2
                           .data:00000cd7 06 c9                            ld b,0xc9
                           .data:00000cd9 06 e0                            ld b,0xe0
                           .data:00000cdb 06 fb                            ld b,0xfb
                           .data:00000cdd 06 2d                            ld b,0x2d
                           .data:00000cdf 07                               rlca
                           .data:00000ce0 7a                               ld a,d
                           .data:00000ce1 07                               rlca
                           .data:00000ce2 90                               sub b
                           .data:00000ce3 07                               rlca
                           .data:00000ce4 a9                               xor c
                           .data:00000ce5 07                               rlca
                           .data:00000ce6 bf                               cp a
                           .data:00000ce7 07                               rlca
                           .data:00000ce8 d6 07                            sub 0x07
                           .data:00000cea ef                               rst 0x28
                           .data:00000ceb 07                               rlca
                           .data:00000cec 1d                               dec e
                           .data:00000ced 08                               ex af,af'
                           .data:00000cee 38 08                            jr c,0x0cf8
                           .data:00000cf0 80                               add a,b
                           .data:00000cf1 08                               ex af,af'
                           .data:00000cf2 9b                               sbc a,e
                           .data:00000cf3 08                               ex af,af'
                           .data:00000cf4 b6                               or (hl)
                           .data:00000cf5 08                               ex af,af'
                           .data:00000cf6 00                               nop
                           .data:00000cf7 02                               ld (bc),a
                           .data:00000cf8 30 02                            jr nc,0x0cfc
                           .data:00000cfa 18 02                            jr 0x0cfe
                           .data:00000cfc 20 03                            jr nz,0x0d01
                           .data:00000cfe 4e                               ld c,(hl)
                           .data:00000cff 0d                               dec c
                           .data:00000d00 c0                               ret nz
                           .data:00000d01 02                               ld (bc),a
                           .data:00000d02 cd 08 51                         call 0x5108
                           .data:00000d05 09                               add hl,bc
                           .data:00000d06 6a                               ld l,d
                           .data:00000d07 09                               add hl,bc
                           .data:00000d08 9a                               sbc a,d
                           .data:00000d09 09                               add hl,bc
                           .data:00000d0a b3                               or e
                           .data:00000d0b 09                               add hl,bc
                           .data:00000d0c 17                               rla
                           .data:00000d0d 0a                               ld a,(bc)
                           .data:00000d0e 30 0a                            jr nc,0x0d1a
                           .data:00000d10 49                               ld c,c
                           .data:00000d11 0a                               ld a,(bc)
                           .data:00000d12 60                               ld h,b
                           .data:00000d13 0a                               ld a,(bc)
                           .data:00000d14 a4                               and h
                           .data:00000d15 0a                               ld a,(bc)
                           .data:00000d16 cd 0a e4                         call 0xe40a
                           .data:00000d19 0a                               ld a,(bc)
                           .data:00000d1a 04                               inc b
                           .data:00000d1b 0b                               dec bc
                           .data:00000d1c 46                               ld b,(hl)
                           .data:00000d1d 0b                               dec bc
                           .data:00000d1e 74                               ld (hl),h
                           .data:00000d1f 0b                               dec bc
                           .data:00000d20 bf                               cp a
                           .data:00000d21 0b                               dec bc
                           .data:00000d22 d8                               ret c
                           .data:00000d23 0b                               dec bc
                           .data:00000d24 f1                               pop af
                           .data:00000d25 0b                               dec bc
                           .data:00000d26 1f                               rra
                           .data:00000d27 0c                               inc c
                           .data:00000d28 47                               ld b,a
                           .data:00000d29 0c                               inc c
                           .data:00000d2a 5f                               ld e,a
                           .data:00000d2b 0c                               inc c
                           .data:00000d2c a4                               and h
                           .data:00000d2d 0c                               inc c
                           .data:00000d2e bd                               cp l
                           .data:00000d2f 0c                               inc c
                           .data:00000d30 03                               inc bc
                           .data:00000d31 0d                               dec c
                           .data:00000d32 1c                               inc e
                           .data:00000d33 0d                               dec c
                           .data:00000d34 35                               dec (hl)
                           .data:00000d35 0d                               dec c
                           .data:00000d36 78                               ld a,b
                           .data:00000d37 02                               ld (bc),a
                           .data:00000d38 a8                               xor b
                           .data:00000d39 02                               ld (bc),a
                           .data:00000d3a 90                               sub b
                           .data:00000d3b 02                               ld (bc),a
                           .data:00000d3c d8                               ret c
                           .data:00000d3d 02                               ld (bc),a
                           .data:00000d3e 3c                               inc a
                           .data:00000d3f 03                               inc bc
                           .data:00000d40 3c                               inc a
                           .data:00000d41 03                               inc bc
                           .data:00000d42 3c                               inc a
                           .data:00000d43 03                               inc bc
                           .data:00000d44 3c                               inc a
                           .data:00000d45 03                               inc bc
                           .data:00000d46 3c                               inc a
                           .data:00000d47 03                               inc bc
                           .data:00000d48 3c                               inc a
                           .data:00000d49 03                               inc bc
                           .data:00000d4a 3c                               inc a
                           .data:00000d4b 03                               inc bc
                           .data:00000d4c 3c                               inc a
                           .data:00000d4d 03                               inc bc
                           .data:00000d4e 3c                               inc a
                           .data:00000d4f 03                               inc bc
                           .data:00000d50 3c                               inc a
                           .data:00000d51 03                               inc bc
                           .data:00000d52 3c                               inc a
                           .data:00000d53 03                               inc bc
                           .data:00000d54 3c                               inc a
                           .data:00000d55 03                               inc bc
                           .data:00000d56 3c                               inc a
                           .data:00000d57 03                               inc bc
                           .data:00000d58 3c                               inc a
                           .data:00000d59 03                               inc bc
                           .data:00000d5a 3c                               inc a
                           .data:00000d5b 03                               inc bc
                           .data:00000d5c 3c                               inc a
                           .data:00000d5d 03                               inc bc
                           .data:00000d5e 3c                               inc a
                           .data:00000d5f 03                               inc bc
                           .data:00000d60 3c                               inc a
                           .data:00000d61 03                               inc bc
                           .data:00000d62 3c                               inc a
                           .data:00000d63 03                               inc bc
                           .data:00000d64 3c                               inc a
                           .data:00000d65 03                               inc bc
                           .data:00000d66 3c                               inc a
                           .data:00000d67 03                               inc bc
                           .data:00000d68 3c                               inc a
                           .data:00000d69 03                               inc bc
                           .data:00000d6a 3c                               inc a
                           .data:00000d6b 03                               inc bc
                           .data:00000d6c 3c                               inc a
                           .data:00000d6d 03                               inc bc
                           .data:00000d6e 3c                               inc a
                           .data:00000d6f 03                               inc bc
                           .data:00000d70 3c                               inc a
                           .data:00000d71 03                               inc bc
                           .data:00000d72 3c                               inc a
                           .data:00000d73 03                               inc bc
                           .data:00000d74 3c                               inc a
                           .data:00000d75 03                               inc bc
                           .data:00000d76 3c                               inc a
                           .data:00000d77 03                               inc bc
                           .data:00000d78 3c                               inc a
                           .data:00000d79 03                               inc bc
                           .data:00000d7a 3c                               inc a
                           .data:00000d7b 03                               inc bc
                           .data:00000d7c 3c                               inc a
                           .data:00000d7d 03                               inc bc
                           .data:00000d7e 3c                               inc a
                           .data:00000d7f 03                               inc bc
                           .data:00000d80 3c                               inc a
                           .data:00000d81 03                               inc bc
                           .data:00000d82 c6 0e                            add a,0x0e
                           .data:00000d84 2e 0f                            ld l,0x0f
                           .data:00000d86 4b                               ld c,e
                           .data:00000d87 0f                               rrca
                           .data:00000d88 3c                               inc a
                           .data:00000d89 03                               inc bc
                           .data:00000d8a 08                               ex af,af'
                           .data:00000d8b 03                               inc bc
                           .data:00000d8c f0                               ret p
                           .data:00000d8d 02                               ld (bc),a
                           .data:00000d8e 3c                               inc a
                           .data:00000d8f 03                               inc bc
                           .data:00000d90 3c                               inc a
                           .data:00000d91 03                               inc bc
                           .data:00000d92 3c                               inc a
                           .data:00000d93 03                               inc bc
                           .data:00000d94 3c                               inc a
                           .data:00000d95 03                               inc bc
                           .data:00000d96 3c                               inc a
                           .data:00000d97 03                               inc bc
                           .data:00000d98 3c                               inc a
                           .data:00000d99 03                               inc bc
                           .data:00000d9a 3c                               inc a
                           .data:00000d9b 03                               inc bc
                           .data:00000d9c 3c                               inc a
                           .data:00000d9d 03                               inc bc
                           .data:00000d9e 3c                               inc a
                           .data:00000d9f 03                               inc bc
                           .data:00000da0 3c                               inc a
                           .data:00000da1 03                               inc bc
                           .data:00000da2 3c                               inc a
                           .data:00000da3 03                               inc bc
                           .data:00000da4 3c                               inc a
                           .data:00000da5 03                               inc bc
                           .data:00000da6 3c                               inc a
                           .data:00000da7 03                               inc bc
                           .data:00000da8 3c                               inc a
                           .data:00000da9 03                               inc bc
                           .data:00000daa 3c                               inc a
                           .data:00000dab 03                               inc bc
                           .data:00000dac 3c                               inc a
                           .data:00000dad 03                               inc bc
                           .data:00000dae 3c                               inc a
                           .data:00000daf 03                               inc bc
                           .data:00000db0 3c                               inc a
                           .data:00000db1 03                               inc bc
                           .data:00000db2 3c                               inc a
                           .data:00000db3 03                               inc bc
                           .data:00000db4 3c                               inc a
                           .data:00000db5 03                               inc bc
                           .data:00000db6 3c                               inc a
                           .data:00000db7 03                               inc bc
                           .data:00000db8 3c                               inc a
                           .data:00000db9 03                               inc bc
                           .data:00000dba 3c                               inc a
                           .data:00000dbb 03                               inc bc
                           .data:00000dbc 3c                               inc a
                           .data:00000dbd 03                               inc bc
                           .data:00000dbe 3c                               inc a
                           .data:00000dbf 03                               inc bc
                           .data:00000dc0 3c                               inc a
                           .data:00000dc1 03                               inc bc
                           .data:00000dc2 3c                               inc a
                           .data:00000dc3 03                               inc bc
                           .data:00000dc4 3c                               inc a
                           .data:00000dc5 03                               inc bc
                           .data:00000dc6 3c                               inc a
                           .data:00000dc7 03                               inc bc
                           .data:00000dc8 3c                               inc a
                           .data:00000dc9 03                               inc bc
                           .data:00000dca 3c                               inc a
                           .data:00000dcb 03                               inc bc
                           .data:00000dcc 3c                               inc a
                           .data:00000dcd 03                               inc bc
                           .data:00000dce 3c                               inc a
                           .data:00000dcf 03                               inc bc
                           .data:00000dd0 3c                               inc a
                           .data:00000dd1 03                               inc bc
                           .data:00000dd2 3c                               inc a
                           .data:00000dd3 03                               inc bc
                           .data:00000dd4 3c                               inc a
                           .data:00000dd5 03                               inc bc
                           .data:00000dd6 3c                               inc a
                           .data:00000dd7 03                               inc bc
                           .data:00000dd8 3c                               inc a
                           .data:00000dd9 03                               inc bc
                           .data:00000dda 3c                               inc a
                           .data:00000ddb 03                               inc bc
                           .data:00000ddc 3c                               inc a
                           .data:00000ddd 03                               inc bc
                           .data:00000dde 3c                               inc a
                           .data:00000ddf 03                               inc bc
                           .data:00000de0 3c                               inc a
                           .data:00000de1 03                               inc bc
                           .data:00000de2 3c                               inc a
                           .data:00000de3 03                               inc bc
                           .data:00000de4 3c                               inc a
                           .data:00000de5 03                               inc bc
                           .data:00000de6 3c                               inc a
                           .data:00000de7 03                               inc bc
                           .data:00000de8 3c                               inc a
                           .data:00000de9 03                               inc bc
                           .data:00000dea 3c                               inc a
                           .data:00000deb 03                               inc bc
                           .data:00000dec 3c                               inc a
                           .data:00000ded 03                               inc bc
                           .data:00000dee 3c                               inc a
                           .data:00000def 03                               inc bc
                           .data:00000df0 3c                               inc a
                           .data:00000df1 03                               inc bc
                           .data:00000df2 3c                               inc a
                           .data:00000df3 03                               inc bc
                           .data:00000df4 3c                               inc a
                           .data:00000df5 03                               inc bc
                           .data:00000df6 3c                               inc a
                           .data:00000df7 03                               inc bc
                           .data:00000df8 3c                               inc a
                           .data:00000df9 03                               inc bc
                           .data:00000dfa 3c                               inc a
                           .data:00000dfb 03                               inc bc
                           .data:00000dfc 3c                               inc a
                           .data:00000dfd 03                               inc bc
                           .data:00000dfe 3c                               inc a
                           .data:00000dff 03                               inc bc
                           .data:00000e00 3c                               inc a
                           .data:00000e01 03                               inc bc
                           .data:00000e02 3c                               inc a
                           .data:00000e03 03                               inc bc
                           .data:00000e04 3c                               inc a
                           .data:00000e05 03                               inc bc
                           .data:00000e06 3c                               inc a
                           .data:00000e07 03                               inc bc
                           .data:00000e08 3c                               inc a
                           .data:00000e09 03                               inc bc
                           .data:00000e0a 3c                               inc a
                           .data:00000e0b 03                               inc bc
                           .data:00000e0c 3c                               inc a
                           .data:00000e0d 03                               inc bc
                           .data:00000e0e 3c                               inc a
                           .data:00000e0f 03                               inc bc
                           .data:00000e10 3c                               inc a
                           .data:00000e11 03                               inc bc
                           .data:00000e12 3c                               inc a
                           .data:00000e13 03                               inc bc
                           .data:00000e14 3c                               inc a
                           .data:00000e15 03                               inc bc
                           .data:00000e16 3c                               inc a
                           .data:00000e17 03                               inc bc
                           .data:00000e18 3c                               inc a
                           .data:00000e19 03                               inc bc
                           .data:00000e1a 3c                               inc a
                           .data:00000e1b 03                               inc bc
                           .data:00000e1c 3c                               inc a
                           .data:00000e1d 03                               inc bc
                           .data:00000e1e 3c                               inc a
                           .data:00000e1f 03                               inc bc
                           .data:00000e20 3c                               inc a
                           .data:00000e21 03                               inc bc
                           .data:00000e22 3c                               inc a
                           .data:00000e23 03                               inc bc
                           .data:00000e24 3c                               inc a
                           .data:00000e25 03                               inc bc
                           .data:00000e26 3c                               inc a
                           .data:00000e27 03                               inc bc
                           .data:00000e28 3c                               inc a
                           .data:00000e29 03                               inc bc
                           .data:00000e2a 3c                               inc a
                           .data:00000e2b 03                               inc bc
                           .data:00000e2c 3c                               inc a
                           .data:00000e2d 03                               inc bc
                           .data:00000e2e 3c                               inc a
                           .data:00000e2f 03                               inc bc
                           .data:00000e30 3c                               inc a
                           .data:00000e31 03                               inc bc
                           .data:00000e32 3c                               inc a
                           .data:00000e33 03                               inc bc
                           .data:00000e34 3c                               inc a
                           .data:00000e35 03                               inc bc
                           .data:00000e36 3c                               inc a
                           .data:00000e37 03                               inc bc
                           .data:00000e38 3c                               inc a
                           .data:00000e39 03                               inc bc
                           .data:00000e3a 3c                               inc a
                           .data:00000e3b 03                               inc bc
                           .data:00000e3c 3c                               inc a
                           .data:00000e3d 03                               inc bc
                           .data:00000e3e 3c                               inc a
                           .data:00000e3f 03                               inc bc
                           .data:00000e40 84                               add a,h
                           .data:00000e41 05                               dec b
                           .data:00000e42 84                               add a,h
                           .data:00000e43 05                               dec b
                           .data:00000e44 d7                               rst 0x10
                           .data:00000e45 0d                               dec c
                           .data:00000e46 e5                               push hl
                           .data:00000e47 0d                               dec c
                           .data:00000e48 d7                               rst 0x10
                           .data:00000e49 0d                               dec c
                           .data:00000e4a e5                               push hl
                           .data:00000e4b 0d                               dec c
                           .data:00000e4c 84                               add a,h
                           .data:00000e4d 05                               dec b
                           .data:00000e4e f2 0d 3b                         jp p,0x3b0d
                           .data:00000e51 09                               add hl,bc
                           .data:00000e52 fe 09                            cp 0x09
                           .data:00000e54 d7                               rst 0x10
                           .data:00000e55 0d                               dec c
                           .data:00000e56 f2 0d 06                         jp p,0x060d
                           .data:00000e59 08                               ex af,af'
                           .data:00000e5a 06 08                            ld b,0x08
                           .data:00000e5c 4f                               ld c,a
                           .data:00000e5d 0e 91                            ld c,0x91
                           .data:00000e5f 0d                               dec c
                           .data:00000e60 4f                               ld c,a
                           .data:00000e61 0e e5                            ld c,0xe5
                           .data:00000e63 09                               add hl,bc
                           .data:00000e64 9f                               sbc a,a
                           .data:00000e65 05                               dec b
                           .data:00000e66 9f                               sbc a,a
                           .data:00000e67 05                               dec b
                           .data:00000e68 8d                               adc a,l
                           .data:00000e69 0c                               inc c
                           .data:00000e6a 7e                               ld a,(hl)
                           .data:00000e6b 0a                               ld a,(bc)
                           .data:00000e6c 4f                               ld c,a
                           .data:00000e6d 0e 9f                            ld c,0x9f
                           .data:00000e6f 05                               dec b
                           .data:00000e70 e1                               pop hl
                           .data:00000e71 0f                               rrca
                           .data:00000e72 e1                               pop hl
                           .data:00000e73 0f                               rrca
                           .data:00000e74 3d                               dec a
                           .data:00000e75 0e 82                            ld c,0x82
                           .data:00000e77 09                               add hl,bc
                           .data:00000e78 14                               inc d
                           .data:00000e79 07                               rlca
                           .data:00000e7a 82                               add a,d
                           .data:00000e7b 09                               add hl,bc
                           .data:00000e7c e1                               pop hl
                           .data:00000e7d 0f                               rrca
                           .data:00000e7e 5f                               ld e,a
                           .data:00000e7f 07                               rlca
                           .data:00000e80 8d                               adc a,l
                           .data:00000e81 0b                               dec bc
                           .data:00000e82 82                               add a,d
                           .data:00000e83 09                               add hl,bc
                           .data:00000e84 3d                               dec a
                           .data:00000e85 0e 5f                            ld c,0x5f
                           .data:00000e87 07                               rlca
                           .data:00000e88 91                               sub c
                           .data:00000e89 0d                               dec c
                           .data:00000e8a 91                               sub c
                           .data:00000e8b 0d                               dec c
                           .data:00000e8c 74                               ld (hl),h
                           .data:00000e8d 0d                               dec c
                           .data:00000e8e f9                               ld sp,hl
                           .data:00000e8f 08                               ex af,af'
                           .data:00000e90 74                               ld (hl),h
                           .data:00000e91 0d                               dec c
                           .data:00000e92 91                               sub c
                           .data:00000e93 0d                               dec c
                           .data:00000e94 2e 06                            ld l,0x06
                           .data:00000e96 74                               ld (hl),h
                           .data:00000e97 0d                               dec c
                           .data:00000e98 7e                               ld a,(hl)
                           .data:00000e99 10 f9                            djnz 0x0e94
                           .data:00000e9b 08                               ex af,af'
                           .data:00000e9c 74                               ld (hl),h
                           .data:00000e9d 0d                               dec c
                           .data:00000e9e 2e 06                            ld l,0x06
                           .data:00000ea0 bc                               cp h
                           .data:00000ea1 0d                               dec c
                           .data:00000ea2 bc                               cp h
                           .data:00000ea3 0d                               dec c
                           .data:00000ea4 a4                               and h
                           .data:00000ea5 0d                               dec c
                           .data:00000ea6 a4                               and h
                           .data:00000ea7 0d                               dec c
                           .data:00000ea8 a4                               and h
                           .data:00000ea9 0d                               dec c
                           .data:00000eaa a4                               and h
                           .data:00000eab 0d                               dec c
                           .data:00000eac bc                               cp h
                           .data:00000ead 0d                               dec c
                           .data:00000eae a4                               and h
                           .data:00000eaf 0d                               dec c
                           .data:00000eb0 a4                               and h
                           .data:00000eb1 0d                               dec c
                           .data:00000eb2 e3                               ex (sp),hl
                           .data:00000eb3 08                               ex af,af'
                           .data:00000eb4 bc                               cp h
                           .data:00000eb5 0d                               dec c
                           .data:00000eb6 bc                               cp h
                           .data:00000eb7 0d                               dec c
                           .data:00000eb8 3b                               dec sp
                           .data:00000eb9 09                               add hl,bc
                           .data:00000eba 3b                               dec sp
                           .data:00000ebb 09                               add hl,bc
                           .data:00000ebc 0f                               rrca
                           .data:00000ebd 0e e5                            ld c,0xe5
                           .data:00000ebf 09                               add hl,bc
                           .data:00000ec0 0f                               rrca
                           .data:00000ec1 0e f9                            ld c,0xf9
                           .data:00000ec3 08                               ex af,af'
                           .data:00000ec4 3b                               dec sp
                           .data:00000ec5 09                               add hl,bc
                           .data:00000ec6 20 0e                            jr nz,0x0ed6
                           .data:00000ec8 82                               add a,d
                           .data:00000ec9 09                               add hl,bc
                           .data:00000eca e5                               push hl
                           .data:00000ecb 09                               add hl,bc
                           .data:00000ecc 0f                               rrca
                           .data:00000ecd 0e 20                            ld c,0x20
                           .data:00000ecf 0e 8d                            ld c,0x8d
                           .data:00000ed1 0c                               inc c
                           .data:00000ed2 8d                               adc a,l
                           .data:00000ed3 0c                               inc c
                           .data:00000ed4 66                               ld h,(hl)
                           .data:00000ed5 0e cc                            ld c,0xcc
                           .data:00000ed7 09                               add hl,bc
                           .data:00000ed8 66                               ld h,(hl)
                           .data:00000ed9 0e cc                            ld c,0xcc
                           .data:00000edb 09                               add hl,bc
                           .data:00000edc 25                               dec h
                           .data:00000edd 09                               add hl,bc
                           .data:00000ede 25                               dec h
                           .data:00000edf 09                               add hl,bc
                           .data:00000ee0 cc 09 cc                         call z,0xcc09
                           .data:00000ee3 09                               add hl,bc
                           .data:00000ee4 66                               ld h,(hl)
                           .data:00000ee5 0e 25                            ld c,0x25
                           .data:00000ee7 09                               add hl,bc
                           .data:00000ee8 8d                               adc a,l
                           .data:00000ee9 0b                               dec bc
                           .data:00000eea 8d                               adc a,l
                           .data:00000eeb 0b                               dec bc
                           .data:00000eec 7e                               ld a,(hl)
                           .data:00000eed 10 76                            djnz 0x0f65
                           .data:00000eef 0c                               inc c
                           .data:00000ef0 5d                               ld e,l
                           .data:00000ef1 0b                               dec bc
                           .data:00000ef2 35                               dec (hl)
                           .data:00000ef3 10 8d                            djnz 0x0e82
                           .data:00000ef5 0b                               dec bc
                           .data:00000ef6 a6                               and (hl)
                           .data:00000ef7 0b                               dec bc
                           .data:00000ef8 e5                               push hl
                           .data:00000ef9 09                               add hl,bc
                           .data:00000efa 76                               halt
                           .data:00000efb 0c                               inc c
                           .data:00000efc 7e                               ld a,(hl)
                           .data:00000efd 10 a6                            djnz 0x0ea5
                           .data:00000eff 0b                               dec bc
                           .data:00000f00 5d                               ld e,l
                           .data:00000f01 0e 5d                            ld c,0x5d
                           .data:00000f03 0e 5d                            ld c,0x5d
                           .data:00000f05 0e 5d                            ld c,0x5d
                           .data:00000f07 0e 5d                            ld c,0x5d
                           .data:00000f09 0e 76                            ld c,0x76
                           .data:00000f0b 0c                               inc c
                           .data:00000f0c e5                               push hl
                           .data:00000f0d 09                               add hl,bc
                           .data:00000f0e 5d                               ld e,l
                           .data:00000f0f 0e bc                            ld c,0xbc
                           .data:00000f11 0d                               dec c
                           .data:00000f12 4e                               ld c,(hl)
                           .data:00000f13 10 5d                            djnz 0x0f72
                           .data:00000f15 0e e5                            ld c,0xe5
                           .data:00000f17 09                               add hl,bc
                           .data:00000f18 77                               ld (hl),a
                           .data:00000f19 0e 77                            ld c,0x77
                           .data:00000f1b 0e a3                            ld c,0xa3
                           .data:00000f1d 0e 8c                            ld c,0x8c
                           .data:00000f1f 0e a3                            ld c,0xa3
                           .data:00000f21 0e fa                            ld c,0xfa
                           .data:00000f23 0f                               rrca
                           .data:00000f24 8d                               adc a,l
                           .data:00000f25 0c                               inc c
                           .data:00000f26 a3                               and e
                           .data:00000f27 0e f9                            ld c,0xf9
                           .data:00000f29 08                               ex af,af'
                           .data:00000f2a 67                               ld h,a
                           .data:00000f2b 10 a3                            djnz 0x0ed0
                           .data:00000f2d 0e 8d                            ld c,0x8d
                           .data:00000f2f 0c                               inc c
                           .data:00000f30 62                               ld h,d
                           .data:00000f31 0f                               rrca
                           .data:00000f32 62                               ld h,d
                           .data:00000f33 0f                               rrca
                           .data:00000f34 62                               ld h,d
                           .data:00000f35 0f                               rrca
                           .data:00000f36 62                               ld h,d
                           .data:00000f37 0f                               rrca
                           .data:00000f38 62                               ld h,d
                           .data:00000f39 0f                               rrca
                           .data:00000f3a 62                               ld h,d
                           .data:00000f3b 0f                               rrca
                           .data:00000f3c 62                               ld h,d
                           .data:00000f3d 0f                               rrca
                           .data:00000f3e 62                               ld h,d
                           .data:00000f3f 0f                               rrca
                           .data:00000f40 62                               ld h,d
                           .data:00000f41 0f                               rrca
                           .data:00000f42 62                               ld h,d
                           .data:00000f43 0f                               rrca
                           .data:00000f44 df                               rst 0x18
                           .data:00000f45 0e 62                            ld c,0x62
                           .data:00000f47 0f                               rrca
                           .data:00000f48 79                               ld a,c
                           .data:00000f49 0f                               rrca
                           .data:00000f4a 79                               ld a,c
                           .data:00000f4b 0f                               rrca
                           .data:00000f4c 79                               ld a,c
                           .data:00000f4d 0f                               rrca
                           .data:00000f4e 79                               ld a,c
                           .data:00000f4f 0f                               rrca
                           .data:00000f50 79                               ld a,c
                           .data:00000f51 0f                               rrca
                           .data:00000f52 79                               ld a,c
                           .data:00000f53 0f                               rrca
                           .data:00000f54 79                               ld a,c
                           .data:00000f55 0f                               rrca
                           .data:00000f56 79                               ld a,c
                           .data:00000f57 0f                               rrca
                           .data:00000f58 79                               ld a,c
                           .data:00000f59 0f                               rrca
                           .data:00000f5a 79                               ld a,c
                           .data:00000f5b 0f                               rrca
                           .data:00000f5c 92                               sub d
                           .data:00000f5d 0f                               rrca
                           .data:00000f5e 79                               ld a,c
                           .data:00000f5f 0f                               rrca
                           .data:00000f60 b9                               cp c
                           .data:00000f61 0e b9                            ld c,0xb9
                           .data:00000f63 0e b9                            ld c,0xb9
                           .data:00000f65 0e b9                            ld c,0xb9
                           .data:00000f67 0e b9                            ld c,0xb9
                           .data:00000f69 0e b9                            ld c,0xb9
                           .data:00000f6b 0e 06                            ld c,0x06
                           .data:00000f6d 08                               ex af,af'
                           .data:00000f6e b9                               cp c
                           .data:00000f6f 0e b9                            ld c,0xb9
                           .data:00000f71 0e b9                            ld c,0xb9
                           .data:00000f73 0e b9                            ld c,0xb9
                           .data:00000f75 0e 06                            ld c,0x06
                           .data:00000f77 08                               ex af,af'
                           .data:00000f78 0f                               rrca
                           .data:00000f79 24                               inc h
                           .data:00000f7a 0f                               rrca
                           .data:00000f7b 00                               nop
                           .data:00000f7c 24                               inc h
                           .data:00000f7d 07                               rlca
                           .data:00000f7e 07                               rlca
                           .data:00000f7f 15                               dec d
                           .data:00000f80 01 00 00                         ld bc,0x0000
                           .data:00000f83 00                               nop
                           .data:00000f84 00                               nop
                           .data:00000f85 00                               nop
                           .data:00000f86 00                               nop
                           .data:00000f87 00                               nop
                           .data:00000f88 00                               nop
                           .data:00000f89 00                               nop
                           .data:00000f8a 01 00 00                         ld bc,0x0000
                           .data:00000f8d 00                               nop
                           .data:00000f8e 00                               nop
                           .data:00000f8f 00                               nop
                           .data:00000f90 00                               nop
                           .data:00000f91 00                               nop
                           .data:00000f92 00                               nop
                           .data:00000f93 00                               nop
                           .data:00000f94 01 12 11                         ld bc,0x1112
                           .data:00000f97 09                               add hl,bc
                           .data:00000f98 01 02 18                         ld bc,0x1802
                           .data:00000f9b 0c                               inc c
                           .data:00000f9c 07                               rlca
                           .data:00000f9d 0a                               ld a,(bc)
                           .data:00000f9e 03                               inc bc
                           .data:00000f9f 00                               nop
                           .data:00000fa0 00                               nop
                           .data:00000fa1 00                               nop
                           .data:00000fa2 00                               nop
                           .data:00000fa3 00                               nop
                           .data:00000fa4 00                               nop
                           .data:00000fa5 00                               nop
                           .data:00000fa6 00                               nop
                           .data:00000fa7 03                               inc bc
                           .data:00000fa8 1e 09                            ld e,0x09
                           .data:00000faa 06 13                            ld b,0x13
                           .data:00000fac 04                               inc b
                           .data:00000fad 05                               dec b
                           .data:00000fae 06 07                            ld b,0x07
                           .data:00000fb0 08                               ex af,af'
                           .data:00000fb1 09                               add hl,bc
                           .data:00000fb2 00                               nop
                           .data:00000fb3 0a                               ld a,(bc)
                           .data:00000fb4 08                               ex af,af'
                           .data:00000fb5 0b                               dec bc
                           .data:00000fb6 0c                               inc c
                           .data:00000fb7 0d                               dec c
                           .data:00000fb8 00                               nop
                           .data:00000fb9 09                               add hl,bc
                           .data:00000fba 08                               ex af,af'
                           .data:00000fbb 0e 00                            ld c,0x00
                           .data:00000fbd 0f                               rrca
                           .data:00000fbe 10 1e                            djnz 0x0fde
                           .data:00000fc0 0a                               ld a,(bc)
                           .data:00000fc1 07                               rlca
                           .data:00000fc2 10 06                            djnz 0x0fca
                           .data:00000fc4 11 08 12                         ld de,0x1208
                           .data:00000fc7 13                               inc de
                           .data:00000fc8 14                               inc d
                           .data:00000fc9 0e 15                            ld c,0x15
                           .data:00000fcb 0a                               ld a,(bc)
                           .data:00000fcc 07                               rlca
                           .data:00000fcd 16 17                            ld d,0x17
                           .data:00000fcf 12                               ld (de),a
                           .data:00000fd0 09                               add hl,bc
                           .data:00000fd1 18 04                            jr 0x0fd7
                           .data:00000fd3 21 07 07                         ld hl,0x0707
                           .data:00000fd6 17                               rla
                           .data:00000fd7 19                               add hl,de
                           .data:00000fd8 1a                               ld a,(de)
                           .data:00000fd9 1b                               dec de
                           .data:00000fda 00                               nop
                           .data:00000fdb 1c                               inc e
                           .data:00000fdc 09                               add hl,bc
                           .data:00000fdd 07                               rlca
                           .data:00000fde 08                               ex af,af'
                           .data:00000fdf 1d                               dec e
                           .data:00000fe0 00                               nop
                           .data:00000fe1 1e 00                            ld e,0x00
                           .data:00000fe3 0e 04                            ld c,0x04
                           .data:00000fe5 14                               inc d
                           .data:00000fe6 00                               nop
                           .data:00000fe7 10 00                            djnz 0x0fe9
                           .data:00000fe9 04                               inc b
                           .data:00000fea 14                               inc d
                           .data:00000feb 08                               ex af,af'
                           .data:00000fec 00                               nop
                           .data:00000fed 0e 12                            ld c,0x12
                           .data:00000fef 11 09 01                         ld de,0x0109
                           .data:00000ff2 03                               inc bc
                           .data:00000ff3 12                               ld (de),a
                           .data:00000ff4 10 07                            djnz 0x0ffd
                           .data:00000ff6 05                               dec b
                           .data:00000ff7 1f                               rra
                           .data:00000ff8 20 12                            jr nz,0x100c
                           .data:00000ffa 21 22 12                         ld hl,0x1222
                           .data:00000ffd 10 07                            djnz 0x1006
                           .data:00000fff 05                               dec b
