                           .data:00000000 00                               nop
                           .data:00000001 3f                               ccf
                           .data:00000002 03                               inc bc
                           .data:00000003 03                               inc bc
                           .data:00000004 03                               inc bc
                           .data:00000005 03                               inc bc
                           .data:00000006 03                               inc bc
                           .data:00000007 03                               inc bc
                           .data:00000008 03                               inc bc
                           .data:00000009 03                               inc bc
                           .data:0000000a 03                               inc bc
                           .data:0000000b 03                               inc bc
                           .data:0000000c 04                               inc b
                           .data:0000000d 04                               inc b
                           .data:0000000e 04                               inc b
                           .data:0000000f 04                               inc b
                           .data:00000010 04                               inc b
                           .data:00000011 04                               inc b
                           .data:00000012 04                               inc b
                           .data:00000013 04                               inc b
                           .data:00000014 04                               inc b
                           .data:00000015 04                               inc b
                           .data:00000016 04                               inc b
                           .data:00000017 04                               inc b
                           .data:00000018 04                               inc b
                           .data:00000019 04                               inc b
                           .data:0000001a 04                               inc b
                           .data:0000001b 04                               inc b
                           .data:0000001c 04                               inc b
                           .data:0000001d 04                               inc b
                           .data:0000001e 04                               inc b
                           .data:0000001f 04                               inc b
                           .data:00000020 04                               inc b
                           .data:00000021 04                               inc b
                           .data:00000022 04                               inc b
                           .data:00000023 04                               inc b
                           .data:00000024 04                               inc b
                           .data:00000025 05                               dec b
                           .data:00000026 05                               dec b
                           .data:00000027 05                               dec b
                           .data:00000028 05                               dec b
                           .data:00000029 05                               dec b
                           .data:0000002a 05                               dec b
                           .data:0000002b 05                               dec b
                           .data:0000002c 05                               dec b
                           .data:0000002d 05                               dec b
                           .data:0000002e 05                               dec b
                           .data:0000002f 05                               dec b
                           .data:00000030 05                               dec b
                           .data:00000031 05                               dec b
                           .data:00000032 05                               dec b
                           .data:00000033 05                               dec b
                           .data:00000034 05                               dec b
                           .data:00000035 05                               dec b
                           .data:00000036 05                               dec b
                           .data:00000037 05                               dec b
                           .data:00000038 05                               dec b
                           .data:00000039 05                               dec b
                           .data:0000003a 05                               dec b
                           .data:0000003b 05                               dec b
                           .data:0000003c 05                               dec b
                           .data:0000003d 05                               dec b
                           .data:0000003e 05                               dec b
                           .data:0000003f 06 20                            ld b,0x20
                           .data:00000041 20 87                            jr nz,0xffca
                           .data:00000043 ff                               rst 0x38
                           .data:00000044 82                               add a,d
                           .data:00000045 3e 82                            ld a,0x82
                           .data:00000047 fc 02 72                         call m,0x7202
                           .data:0000004a a0                               and b
                           .data:0000004b fc a0 fc                         call m,0xfca0
                           .data:0000004e a0                               and b
                           .data:0000004f fc a0 fc                         call m,0xfca0
                           .data:00000052 a0                               and b
                           .data:00000053 fc a0 fc                         call m,0xfca0
                           .data:00000056 b9                               cp c
                           .data:00000057 fc 01 02                         call m,0x0201
                           .data:0000005a f7                               rst 0x30
                           .data:0000005b 3e b9                            ld a,0xb9
                           .data:0000005d fc b9 fc                         call m,0xfcb9
                           .data:00000060 01 02 f7                         ld bc,0xf702
                           .data:00000063 3e 84                            ld a,0x84
                           .data:00000065 b9                               cp c
                           .data:00000066 fc 84 fc                         call m,0xfc84
                           .data:00000069 b9                               cp c
                           .data:0000006a fc 83 01                         call m,0x0183
                           .data:0000006d 02                               ld (bc),a
                           .data:0000006e f7                               rst 0x30
                           .data:0000006f 3e b9                            ld a,0xb9
                           .data:00000071 fc 84 fc                         call m,0xfc84
                           .data:00000074 01 a1 8c                         ld bc,0x8ca1
                           .data:00000077 01 01 a1                         ld bc,0xa101
                           .data:0000007a 54                               ld d,h
                           .data:0000007b 01 a1 8c                         ld bc,0x8ca1
                           .data:0000007e 03                               inc bc
                           .data:0000007f f7                               rst 0x30
                           .data:00000080 0f                               rrca
                           .data:00000081 f7                               rst 0x30
                           .data:00000082 20 04                            jr nz,0x0088
                           .data:00000084 01 a1 54                         ld bc,0x54a1
                           .data:00000087 01 a1 50                         ld bc,0x50a1
                           .data:0000008a f7                               rst 0x30
                           .data:0000008b 2b                               dec hl
                           .data:0000008c b9                               cp c
                           .data:0000008d fc 83 01                         call m,0x0183
                           .data:00000090 02                               ld (bc),a
                           .data:00000091 f7                               rst 0x30
                           .data:00000092 3e b9                            ld a,0xb9
                           .data:00000094 fc b9 fc                         call m,0xfcb9
                           .data:00000097 01 02 f7                         ld bc,0xf702
                           .data:0000009a 3e 84                            ld a,0x84
                           .data:0000009c b9                               cp c
                           .data:0000009d fc 5f 87                         call m,0x875f
                           .data:000000a0 ff                               rst 0x38
                           .data:000000a1 82                               add a,d
                           .data:000000a2 fc ea ff                         call m,0xffea
                           .data:000000a5 50                               ld d,b
                           .data:000000a6 b9                               cp c
                           .data:000000a7 fc 01 02                         call m,0x0201
                           .data:000000aa f7                               rst 0x30
                           .data:000000ab 3e 84                            ld a,0x84
                           .data:000000ad b9                               cp c
                           .data:000000ae fc eb 50                         call m,0x50eb
                           .data:000000b1 83                               add a,e
                           .data:000000b2 b9                               cp c
                           .data:000000b3 fc 01 02                         call m,0x0201
                           .data:000000b6 f7                               rst 0x30
                           .data:000000b7 3e b9                            ld a,0xb9
                           .data:000000b9 fc 82 22                         call m,0x2282
                           .data:000000bc 54                               ld d,h
                           .data:000000bd 82                               add a,d
                           .data:000000be 22 ea 00                         ld (0x00ea),hl
                           .data:000000c1 54                               ld d,h
                           .data:000000c2 24                               inc h
                           .data:000000c3 50                               ld d,b
                           .data:000000c4 82                               add a,d
                           .data:000000c5 ff                               rst 0x38
                           .data:000000c6 82                               add a,d
                           .data:000000c7 fc 5f f7                         call m,0xf75f
                           .data:000000ca 0f                               rrca
                           .data:000000cb 84                               add a,h
                           .data:000000cc fc 7d 25                         call m,0x257d
                           .data:000000cf 88                               adc a,b
                           .data:000000d0 03                               inc bc
                           .data:000000d1 02                               ld (bc),a
                           .data:000000d2 72                               ld (hl),d
                           .data:000000d3 82                               add a,d
                           .data:000000d4 00                               nop
                           .data:000000d5 f7                               rst 0x30
                           .data:000000d6 27                               daa
                           .data:000000d7 01 d2 82                         ld bc,0x82d2
                           .data:000000da fc 82 fe                         call m,0xfe82
                           .data:000000dd 82                               add a,d
                           .data:000000de fc f0 fc                         call m,0xfcf0
                           .data:000000e1 01 71 81                         ld bc,0x8171
                           .data:000000e4 ff                               rst 0x38
                           .data:000000e5 b9                               cp c
                           .data:000000e6 fc 83 01                         call m,0x0183
                           .data:000000e9 02                               ld (bc),a
                           .data:000000ea f7                               rst 0x30
                           .data:000000eb 3e b9                            ld a,0xb9
                           .data:000000ed fc 84 fc                         call m,0xfc84
                           .data:000000f0 24                               inc h
                           .data:000000f1 ec 00 54                         call pe,0x5400
                           .data:000000f4 a0                               and b
                           .data:000000f5 fc 84 fc                         call m,0xfc84
                           .data:000000f8 3c                               inc a
                           .data:000000f9 f7                               rst 0x30
                           .data:000000fa 03                               inc bc
                           .data:000000fb 21 85 03                         ld hl,0x0385
                           .data:000000fe b9                               cp c
                           .data:000000ff fc 83 01                         call m,0x0183
                           .data:00000102 02                               ld (bc),a
                           .data:00000103 f7                               rst 0x30
                           .data:00000104 3e b9                            ld a,0xb9
                           .data:00000106 fc 39 a4                         call m,0xa439
                           .data:00000109 ff                               rst 0x38
                           .data:0000010a 94                               sub h
                           .data:0000010b 84                               add a,h
                           .data:0000010c fc 57 f7                         call m,0xf757
                           .data:0000010f 3c                               inc a
                           .data:00000110 f7                               rst 0x30
                           .data:00000111 3c                               inc a
                           .data:00000112 eb                               ex de,hl
                           .data:00000113 ff                               rst 0x38
                           .data:00000114 54                               ld d,h
                           .data:00000115 28 84                            jr z,0x009b
                           .data:00000117 fc 90 8f                         call m,0x8f90
                           .data:0000011a 3c                               inc a
                           .data:0000011b 8f                               adc a,a
                           .data:0000011c 15                               dec d
                           .data:0000011d 8f                               adc a,a
                           .data:0000011e 28 8f                            jr z,0x00af
                           .data:00000120 28 8f                            jr z,0x00b1
                           .data:00000122 29                               add hl,hl
                           .data:00000123 8f                               adc a,a
                           .data:00000124 2a 8f 28                         ld hl,(0x288f)
                           .data:00000127 8f                               adc a,a
                           .data:00000128 2b                               dec hl
                           .data:00000129 8f                               adc a,a
                           .data:0000012a 22 8f 28                         ld (0x288f),hl
                           .data:0000012d 8f                               adc a,a
                           .data:0000012e 23                               inc hl
                           .data:0000012f 8f                               adc a,a
                           .data:00000130 26 8f                            ld h,0x8f
                           .data:00000132 26 8f                            ld h,0x8f
                           .data:00000134 31 8f 23                         ld sp,0x238f
                           .data:00000137 8f                               adc a,a
                           .data:00000138 27                               daa
                           .data:00000139 8f                               adc a,a
                           .data:0000013a 28 8f                            jr z,0x00cb
                           .data:0000013c 28 8f                            jr z,0x00cd
                           .data:0000013e 28 8f                            jr z,0x00cf
                           .data:00000140 28 8f                            jr z,0x00d1
                           .data:00000142 28 8f                            jr z,0x00d3
                           .data:00000144 28 8f                            jr z,0x00d5
                           .data:00000146 28 8f                            jr z,0x00d7
                           .data:00000148 28 8f                            jr z,0x00d9
                           .data:0000014a 06 8f                            ld b,0x8f
                           .data:0000014c 06 8f                            ld b,0x8f
                           .data:0000014e 28 8f                            jr z,0x00df
                           .data:00000150 3c                               inc a
                           .data:00000151 8f                               adc a,a
                           .data:00000152 06 8f                            ld b,0x8f
                           .data:00000154 06 8f                            ld b,0x8f
                           .data:00000156 28 8f                            jr z,0x00e7
                           .data:00000158 07                               rlca
                           .data:00000159 8f                               adc a,a
                           .data:0000015a 2d                               dec l
                           .data:0000015b 8f                               adc a,a
                           .data:0000015c 2d                               dec l
                           .data:0000015d 8f                               adc a,a
                           .data:0000015e 28 8f                            jr z,0x00ef
                           .data:00000160 28 8f                            jr z,0x00f1
                           .data:00000162 3c                               inc a
                           .data:00000163 8f                               adc a,a
                           .data:00000164 28 8f                            jr z,0x00f5
                           .data:00000166 28 8f                            jr z,0x00f7
                           .data:00000168 28 8f                            jr z,0x00f9
                           .data:0000016a 1c                               inc e
                           .data:0000016b 8f                               adc a,a
                           .data:0000016c 1c                               inc e
                           .data:0000016d 8f                               adc a,a
                           .data:0000016e 1c                               inc e
                           .data:0000016f 8f                               adc a,a
                           .data:00000170 1d                               dec e
                           .data:00000171 8f                               adc a,a
                           .data:00000172 1d                               dec e
                           .data:00000173 8f                               adc a,a
                           .data:00000174 3c                               inc a
                           .data:00000175 8f                               adc a,a
                           .data:00000176 1e 8f                            ld e,0x8f
                           .data:00000178 1e 8f                            ld e,0x8f
                           .data:0000017a 3a 8f 3a                         ld a,(0x3a8f)
                           .data:0000017d 8f                               adc a,a
                           .data:0000017e 3a 8f 28                         ld a,(0x288f)
                           .data:00000181 8f                               adc a,a
                           .data:00000182 28 8f                            jr z,0x0113
                           .data:00000184 3b                               dec sp
                           .data:00000185 8f                               adc a,a
                           .data:00000186 3c                               inc a
                           .data:00000187 8f                               adc a,a
                           .data:00000188 3b                               dec sp
                           .data:00000189 8f                               adc a,a
                           .data:0000018a 28 8f                            jr z,0x011b
                           .data:0000018c 28 8f                            jr z,0x011d
                           .data:0000018e 28 8f                            jr z,0x011f
                           .data:00000190 28 8f                            jr z,0x0121
                           .data:00000192 28 8f                            jr z,0x0123
                           .data:00000194 28 8f                            jr z,0x0125
                           .data:00000196 3f                               ccf
                           .data:00000197 8f                               adc a,a
                           .data:00000198 28 02                            jr z,0x019c
                           .data:0000019a f7                               rst 0x30
                           .data:0000019b 31 f7 20                         ld sp,0x20f7
                           .data:0000019e 05                               dec b
                           .data:0000019f 75                               ld (hl),l
                           .data:000001a0 84                               add a,h
                           .data:000001a1 fc 24 85                         call m,0x8524
                           .data:000001a4 3c                               inc a
                           .data:000001a5 90                               sub b
                           .data:000001a6 8f                               adc a,a
                           .data:000001a7 03                               inc bc
                           .data:000001a8 8f                               adc a,a
                           .data:000001a9 03                               inc bc
                           .data:000001aa 8f                               adc a,a
                           .data:000001ab 37                               scf
                           .data:000001ac 8f                               adc a,a
                           .data:000001ad 37                               scf
                           .data:000001ae 8f                               adc a,a
                           .data:000001af 3d                               dec a
                           .data:000001b0 8f                               adc a,a
                           .data:000001b1 03                               inc bc
                           .data:000001b2 8f                               adc a,a
                           .data:000001b3 03                               inc bc
                           .data:000001b4 8f                               adc a,a
                           .data:000001b5 01 20 20                         ld bc,0x2020
                           .data:000001b8 20 20                            jr nz,0x01da
                           .data:000001ba 02                               ld (bc),a
                           .data:000001bb b9                               cp c
                           .data:000001bc fc 01 02                         call m,0x0201
                           .data:000001bf f7                               rst 0x30
                           .data:000001c0 3e 81                            ld a,0x81
                           .data:000001c2 82                               add a,d
                           .data:000001c3 fc 83 fc                         call m,0xfc83
                           .data:000001c6 a1                               and c
                           .data:000001c7 58                               ld e,b
                           .data:000001c8 b9                               cp c
                           .data:000001c9 fc 83 01                         call m,0x0183
                           .data:000001cc 02                               ld (bc),a
                           .data:000001cd f7                               rst 0x30
                           .data:000001ce 3e b9                            ld a,0xb9
                           .data:000001d0 fc f0 80                         call m,0x80f0
                           .data:000001d3 fc f7 06                         call m,0x06f7
                           .data:000001d6 f0                               ret p
                           .data:000001d7 80                               add a,b
                           .data:000001d8 fc f7 06                         call m,0x06f7
                           .data:000001db f0                               ret p
                           .data:000001dc 80                               add a,b
                           .data:000001dd fc f7 06                         call m,0x06f7
                           .data:000001e0 f0                               ret p
                           .data:000001e1 80                               add a,b
                           .data:000001e2 fc f7 06                         call m,0x06f7
                           .data:000001e5 f0                               ret p
                           .data:000001e6 80                               add a,b
                           .data:000001e7 fc f7 06                         call m,0x06f7
                           .data:000001ea f0                               ret p
                           .data:000001eb 80                               add a,b
                           .data:000001ec fc f7 06                         call m,0x06f7
                           .data:000001ef f0                               ret p
                           .data:000001f0 80                               add a,b
                           .data:000001f1 fc f7 06                         call m,0x06f7
                           .data:000001f4 f0                               ret p
                           .data:000001f5 80                               add a,b
                           .data:000001f6 fc f7 06                         call m,0x06f7
                           .data:000001f9 f0                               ret p
                           .data:000001fa 80                               add a,b
                           .data:000001fb fc f7 06                         call m,0x06f7
                           .data:000001fe f0                               ret p
                           .data:000001ff 80                               add a,b
                           .data:00000200 fc f7 06                         call m,0x06f7
                           .data:00000203 f0                               ret p
                           .data:00000204 80                               add a,b
                           .data:00000205 fc f7 06                         call m,0x06f7
                           .data:00000208 f0                               ret p
                           .data:00000209 80                               add a,b
                           .data:0000020a fc f7 06                         call m,0x06f7
                           .data:0000020d f0                               ret p
                           .data:0000020e 80                               add a,b
                           .data:0000020f fc f7 06                         call m,0x06f7
                           .data:00000212 f0                               ret p
                           .data:00000213 80                               add a,b
                           .data:00000214 fc f7 06                         call m,0x06f7
                           .data:00000217 f0                               ret p
                           .data:00000218 80                               add a,b
                           .data:00000219 fc f7 06                         call m,0x06f7
                           .data:0000021c f0                               ret p
                           .data:0000021d 80                               add a,b
                           .data:0000021e fc f7 06                         call m,0x06f7
                           .data:00000221 f0                               ret p
                           .data:00000222 80                               add a,b
                           .data:00000223 fc f7 06                         call m,0x06f7
                           .data:00000226 f0                               ret p
                           .data:00000227 80                               add a,b
                           .data:00000228 fc f7 06                         call m,0x06f7
                           .data:0000022b f0                               ret p
                           .data:0000022c 80                               add a,b
                           .data:0000022d fc f7 06                         call m,0x06f7
                           .data:00000230 f0                               ret p
                           .data:00000231 80                               add a,b
                           .data:00000232 fc f7 06                         call m,0x06f7
                           .data:00000235 f0                               ret p
                           .data:00000236 80                               add a,b
                           .data:00000237 fc f7 06                         call m,0x06f7
                           .data:0000023a f0                               ret p
                           .data:0000023b 80                               add a,b
                           .data:0000023c fc f7 06                         call m,0x06f7
                           .data:0000023f f0                               ret p
                           .data:00000240 80                               add a,b
                           .data:00000241 fc f7 06                         call m,0x06f7
                           .data:00000244 f0                               ret p
                           .data:00000245 80                               add a,b
                           .data:00000246 fc f7 06                         call m,0x06f7
                           .data:00000249 f0                               ret p
                           .data:0000024a 80                               add a,b
                           .data:0000024b fc f7 06                         call m,0x06f7
                           .data:0000024e f0                               ret p
                           .data:0000024f 80                               add a,b
                           .data:00000250 fc f7 06                         call m,0x06f7
                           .data:00000253 f0                               ret p
                           .data:00000254 80                               add a,b
                           .data:00000255 fc f7 06                         call m,0x06f7
                           .data:00000258 f0                               ret p
                           .data:00000259 80                               add a,b
                           .data:0000025a fc f7 06                         call m,0x06f7
                           .data:0000025d f0                               ret p
                           .data:0000025e 80                               add a,b
                           .data:0000025f fc f7 06                         call m,0x06f7
                           .data:00000262 f0                               ret p
                           .data:00000263 80                               add a,b
                           .data:00000264 fc f7 06                         call m,0x06f7
                           .data:00000267 f0                               ret p
                           .data:00000268 80                               add a,b
                           .data:00000269 fc f7 06                         call m,0x06f7
                           .data:0000026c f0                               ret p
                           .data:0000026d 80                               add a,b
                           .data:0000026e fc f7 06                         call m,0x06f7
                           .data:00000271 f0                               ret p
                           .data:00000272 80                               add a,b
                           .data:00000273 fc f7 06                         call m,0x06f7
                           .data:00000276 f0                               ret p
                           .data:00000277 80                               add a,b
                           .data:00000278 fc f7 06                         call m,0x06f7
                           .data:0000027b f0                               ret p
                           .data:0000027c 80                               add a,b
                           .data:0000027d fc f7 06                         call m,0x06f7
                           .data:00000280 f0                               ret p
                           .data:00000281 80                               add a,b
                           .data:00000282 fc f7 06                         call m,0x06f7
                           .data:00000285 f0                               ret p
                           .data:00000286 80                               add a,b
                           .data:00000287 fc f7 06                         call m,0x06f7
                           .data:0000028a f0                               ret p
                           .data:0000028b 80                               add a,b
                           .data:0000028c fc f7 06                         call m,0x06f7
                           .data:0000028f f0                               ret p
                           .data:00000290 80                               add a,b
                           .data:00000291 fc f7 06                         call m,0x06f7
                           .data:00000294 f0                               ret p
                           .data:00000295 80                               add a,b
                           .data:00000296 fc f7 06                         call m,0x06f7
                           .data:00000299 f0                               ret p
                           .data:0000029a 80                               add a,b
                           .data:0000029b fc f7 06                         call m,0x06f7
                           .data:0000029e f0                               ret p
                           .data:0000029f 80                               add a,b
                           .data:000002a0 fc f7 06                         call m,0x06f7
                           .data:000002a3 f0                               ret p
                           .data:000002a4 80                               add a,b
                           .data:000002a5 fc f7 06                         call m,0x06f7
                           .data:000002a8 f0                               ret p
                           .data:000002a9 80                               add a,b
                           .data:000002aa fc f7 06                         call m,0x06f7
                           .data:000002ad f0                               ret p
                           .data:000002ae 80                               add a,b
                           .data:000002af fc f7 06                         call m,0x06f7
                           .data:000002b2 f0                               ret p
                           .data:000002b3 80                               add a,b
                           .data:000002b4 fc f7 06                         call m,0x06f7
                           .data:000002b7 f0                               ret p
                           .data:000002b8 80                               add a,b
                           .data:000002b9 fc f7 06                         call m,0x06f7
                           .data:000002bc f0                               ret p
                           .data:000002bd 80                               add a,b
                           .data:000002be fc f7 06                         call m,0x06f7
                           .data:000002c1 f0                               ret p
                           .data:000002c2 80                               add a,b
                           .data:000002c3 fc f7 06                         call m,0x06f7
                           .data:000002c6 f0                               ret p
                           .data:000002c7 80                               add a,b
                           .data:000002c8 fc f7 06                         call m,0x06f7
                           .data:000002cb f0                               ret p
                           .data:000002cc 80                               add a,b
                           .data:000002cd fc f7 06                         call m,0x06f7
                           .data:000002d0 f0                               ret p
                           .data:000002d1 80                               add a,b
                           .data:000002d2 fc f7 06                         call m,0x06f7
                           .data:000002d5 f0                               ret p
                           .data:000002d6 80                               add a,b
                           .data:000002d7 fc f7 06                         call m,0x06f7
                           .data:000002da f0                               ret p
                           .data:000002db 80                               add a,b
                           .data:000002dc fc f7 06                         call m,0x06f7
                           .data:000002df f0                               ret p
                           .data:000002e0 80                               add a,b
                           .data:000002e1 fc f7 06                         call m,0x06f7
                           .data:000002e4 f0                               ret p
                           .data:000002e5 80                               add a,b
                           .data:000002e6 fc f7 06                         call m,0x06f7
                           .data:000002e9 f0                               ret p
                           .data:000002ea 80                               add a,b
                           .data:000002eb fc f7 06                         call m,0x06f7
                           .data:000002ee f0                               ret p
                           .data:000002ef 80                               add a,b
                           .data:000002f0 fc f7 06                         call m,0x06f7
                           .data:000002f3 f0                               ret p
                           .data:000002f4 80                               add a,b
                           .data:000002f5 fc f7 06                         call m,0x06f7
                           .data:000002f8 f0                               ret p
                           .data:000002f9 80                               add a,b
                           .data:000002fa fc f7 06                         call m,0x06f7
                           .data:000002fd f0                               ret p
                           .data:000002fe 80                               add a,b
                           .data:000002ff fc f7 06                         call m,0x06f7
                           .data:00000302 f0                               ret p
                           .data:00000303 80                               add a,b
                           .data:00000304 fc f7 06                         call m,0x06f7
                           .data:00000307 f0                               ret p
                           .data:00000308 20 20                            jr nz,0x032a
                           .data:0000030a 20 20                            jr nz,0x032c
                           .data:0000030c f0                               ret p
                           .data:0000030d 03                               inc bc
                           .data:0000030e 17                               rla
                           .data:0000030f 1f                               rra
                           .data:00000310 15                               dec d
                           .data:00000311 04                               inc b
                           .data:00000312 05                               dec b
                           .data:00000313 10 10                            djnz 0x0325
                           .data:00000315 10 10                            djnz 0x0327
                           .data:00000317 01 03 17                         ld bc,0x1703
                           .data:0000031a 1f                               rra
                           .data:0000031b 16 16                            ld d,0x16
                           .data:0000031d 7f                               ld a,a
                           .data:0000031e 02                               ld (bc),a
                           .data:0000031f 1f                               rra
                           .data:00000320 02                               ld (bc),a
                           .data:00000321 2a 53 2a                         ld hl,(0x2a53)
                           .data:00000324 2a 2a 2a                         ld hl,(0x2a2a)
                           .data:00000327 2a 48 4c                         ld hl,(0x4c48)
                           .data:0000032a 2a 2a 2a                         ld hl,(0x2a2a)
                           .data:0000032d 41                               ld b,c
                           .data:0000032e 59                               ld e,c
                           .data:0000032f 43                               ld b,e
                           .data:00000330 2a 2a 85                         ld hl,(0x852a)
                           .data:00000333 fd                               defb 0xfd
                           .data:00000334 f5                               push af
                           .data:00000335 0e 01                            ld c,0x01
                           .data:00000337 e1                               pop hl
                           .data:00000338 fd                               defb 0xfd
                           .data:00000339 81                               add a,c
                           .data:0000033a 00                               nop
                           .data:0000033b 81                               add a,c
                           .data:0000033c fd                               defb 0xfd
                           .data:0000033d 81                               add a,c
                           .data:0000033e 06 81                            ld b,0x81
                           .data:00000340 fe 8f                            cp 0x8f
                           .data:00000342 08                               ex af,af'
                           .data:00000343 85                               add a,l
                           .data:00000344 fd                               defb 0xfd
                           .data:00000345 f5                               push af
                           .data:00000346 0e 01                            ld c,0x01
                           .data:00000348 e1                               pop hl
                           .data:00000349 fd                               defb 0xfd
                           .data:0000034a 81                               add a,c
                           .data:0000034b 00                               nop
                           .data:0000034c 81                               add a,c
                           .data:0000034d fd                               defb 0xfd
                           .data:0000034e 81                               add a,c
                           .data:0000034f 06 81                            ld b,0x81
                           .data:00000351 fe 8f                            cp 0x8f
                           .data:00000353 08                               ex af,af'
                           .data:00000354 85                               add a,l
                           .data:00000355 fd                               defb 0xfd
                           .data:00000356 f5                               push af
                           .data:00000357 0e 01                            ld c,0x01
                           .data:00000359 e1                               pop hl
                           .data:0000035a fd                               defb 0xfd
                           .data:0000035b 81                               add a,c
                           .data:0000035c 01 81 fd                         ld bc,0xfd81
                           .data:0000035f 81                               add a,c
                           .data:00000360 06 81                            ld b,0x81
                           .data:00000362 fe 8f                            cp 0x8f
                           .data:00000364 08                               ex af,af'
                           .data:00000365 85                               add a,l
                           .data:00000366 fd                               defb 0xfd
                           .data:00000367 f5                               push af
                           .data:00000368 0e 01                            ld c,0x01
                           .data:0000036a e1                               pop hl
                           .data:0000036b fd                               defb 0xfd
                           .data:0000036c 81                               add a,c
                           .data:0000036d 00                               nop
                           .data:0000036e 81                               add a,c
                           .data:0000036f fd                               defb 0xfd
                           .data:00000370 81                               add a,c
                           .data:00000371 06 81                            ld b,0x81
                           .data:00000373 fe 8f                            cp 0x8f
                           .data:00000375 08                               ex af,af'
                           .data:00000376 85                               add a,l
                           .data:00000377 fd                               defb 0xfd
                           .data:00000378 f5                               push af
                           .data:00000379 0e 01                            ld c,0x01
                           .data:0000037b e1                               pop hl
                           .data:0000037c fd                               defb 0xfd
                           .data:0000037d 81                               add a,c
                           .data:0000037e 01 81 fd                         ld bc,0xfd81
                           .data:00000381 81                               add a,c
                           .data:00000382 06 81                            ld b,0x81
                           .data:00000384 fe 8f                            cp 0x8f
                           .data:00000386 08                               ex af,af'
                           .data:00000387 85                               add a,l
                           .data:00000388 fd                               defb 0xfd
                           .data:00000389 f5                               push af
                           .data:0000038a 0e 01                            ld c,0x01
                           .data:0000038c e1                               pop hl
                           .data:0000038d fd                               defb 0xfd
                           .data:0000038e 81                               add a,c
                           .data:0000038f 01 81 fd                         ld bc,0xfd81
                           .data:00000392 81                               add a,c
                           .data:00000393 06 81                            ld b,0x81
                           .data:00000395 fe 8f                            cp 0x8f
                           .data:00000397 08                               ex af,af'
                           .data:00000398 85                               add a,l
                           .data:00000399 fd                               defb 0xfd
                           .data:0000039a 01 e1 fd                         ld bc,0xfde1
                           .data:0000039d 01 e1 00                         ld bc,0x00e1
                           .data:000003a0 01 81 fd                         ld bc,0xfd81
                           .data:000003a3 f5                               push af
                           .data:000003a4 09                               add hl,bc
                           .data:000003a5 f0                               ret p
                           .data:000003a6 f7                               rst 0x30
                           .data:000003a7 0a                               ld a,(bc)
                           .data:000003a8 f7                               rst 0x30
                           .data:000003a9 0a                               ld a,(bc)
                           .data:000003aa f7                               rst 0x30
                           .data:000003ab 0a                               ld a,(bc)
                           .data:000003ac 8f                               adc a,a
                           .data:000003ad 01 8f 07                         ld bc,0x078f
                           .data:000003b0 85                               add a,l
                           .data:000003b1 fd                               defb 0xfd
                           .data:000003b2 02                               ld (bc),a
                           .data:000003b3 f7                               rst 0x30
                           .data:000003b4 27                               daa
                           .data:000003b5 81                               add a,c
                           .data:000003b6 02                               ld (bc),a
                           .data:000003b7 81                               add a,c
                           .data:000003b8 fd                               defb 0xfd
                           .data:000003b9 81                               add a,c
                           .data:000003ba ff                               rst 0x38
                           .data:000003bb 81                               add a,c
                           .data:000003bc fd                               defb 0xfd
                           .data:000003bd f5                               push af
                           .data:000003be 0e f5                            ld c,0xf5
                           .data:000003c0 0e 01                            ld c,0x01
                           .data:000003c2 e1                               pop hl
                           .data:000003c3 fd                               defb 0xfd
                           .data:000003c4 81                               add a,c
                           .data:000003c5 00                               nop
                           .data:000003c6 81                               add a,c
                           .data:000003c7 fd                               defb 0xfd
                           .data:000003c8 81                               add a,c
                           .data:000003c9 06 81                            ld b,0x81
                           .data:000003cb fe f5                            cp 0xf5
                           .data:000003cd 08                               ex af,af'
                           .data:000003ce f7                               rst 0x30
                           .data:000003cf 3c                               inc a
                           .data:000003d0 f5                               push af
                           .data:000003d1 08                               ex af,af'
                           .data:000003d2 f7                               rst 0x30
                           .data:000003d3 3c                               inc a
                           .data:000003d4 f5                               push af
                           .data:000003d5 08                               ex af,af'
                           .data:000003d6 f7                               rst 0x30
                           .data:000003d7 3c                               inc a
                           .data:000003d8 f0                               ret p
                           .data:000003d9 85                               add a,l
                           .data:000003da fd                               defb 0xfd
                           .data:000003db 02                               ld (bc),a
                           .data:000003dc f7                               rst 0x30
                           .data:000003dd 27                               daa
                           .data:000003de 81                               add a,c
                           .data:000003df 02                               ld (bc),a
                           .data:000003e0 81                               add a,c
                           .data:000003e1 fd                               defb 0xfd
                           .data:000003e2 81                               add a,c
                           .data:000003e3 ff                               rst 0x38
                           .data:000003e4 81                               add a,c
                           .data:000003e5 fd                               defb 0xfd
                           .data:000003e6 f5                               push af
                           .data:000003e7 0e f5                            ld c,0xf5
                           .data:000003e9 0e 01                            ld c,0x01
                           .data:000003eb e1                               pop hl
                           .data:000003ec fd                               defb 0xfd
                           .data:000003ed 81                               add a,c
                           .data:000003ee 00                               nop
                           .data:000003ef 81                               add a,c
                           .data:000003f0 fd                               defb 0xfd
                           .data:000003f1 81                               add a,c
                           .data:000003f2 06 81                            ld b,0x81
                           .data:000003f4 fe f5                            cp 0xf5
                           .data:000003f6 08                               ex af,af'
                           .data:000003f7 f7                               rst 0x30
                           .data:000003f8 3c                               inc a
                           .data:000003f9 f5                               push af
                           .data:000003fa 08                               ex af,af'
                           .data:000003fb f7                               rst 0x30
                           .data:000003fc 3c                               inc a
                           .data:000003fd f5                               push af
                           .data:000003fe 08                               ex af,af'
                           .data:000003ff f7                               rst 0x30
                           .data:00000400 3c                               inc a
                           .data:00000401 f0                               ret p
                           .data:00000402 01 e1 fd                         ld bc,0xfde1
                           .data:00000405 81                               add a,c
                           .data:00000406 01 81 fd                         ld bc,0xfd81
                           .data:00000409 81                               add a,c
                           .data:0000040a 06 81                            ld b,0x81
                           .data:0000040c fe f5                            cp 0xf5
                           .data:0000040e 08                               ex af,af'
                           .data:0000040f f5                               push af
                           .data:00000410 08                               ex af,af'
                           .data:00000411 f5                               push af
                           .data:00000412 08                               ex af,af'
                           .data:00000413 f0                               ret p
                           .data:00000414 57                               ld d,a
                           .data:00000415 f5                               push af
                           .data:00000416 0e f7                            ld c,0xf7
                           .data:00000418 0d                               dec c
                           .data:00000419 08                               ex af,af'
                           .data:0000041a 08                               ex af,af'
                           .data:0000041b 08                               ex af,af'
                           .data:0000041c 08                               ex af,af'
                           .data:0000041d 08                               ex af,af'
                           .data:0000041e 08                               ex af,af'
                           .data:0000041f 08                               ex af,af'
                           .data:00000420 08                               ex af,af'
                           .data:00000421 f5                               push af
                           .data:00000422 08                               ex af,af'
                           .data:00000423 5f                               ld e,a
                           .data:00000424 f5                               push af
                           .data:00000425 08                               ex af,af'
                           .data:00000426 5f                               ld e,a
                           .data:00000427 f5                               push af
                           .data:00000428 08                               ex af,af'
                           .data:00000429 5f                               ld e,a
                           .data:0000042a f5                               push af
                           .data:0000042b 08                               ex af,af'
                           .data:0000042c 5f                               ld e,a
                           .data:0000042d f5                               push af
                           .data:0000042e 09                               add hl,bc
                           .data:0000042f 5f                               ld e,a
                           .data:00000430 f5                               push af
                           .data:00000431 08                               ex af,af'
                           .data:00000432 5f                               ld e,a
                           .data:00000433 f5                               push af
                           .data:00000434 09                               add hl,bc
                           .data:00000435 5f                               ld e,a
                           .data:00000436 f5                               push af
                           .data:00000437 09                               add hl,bc
                           .data:00000438 5f                               ld e,a
                           .data:00000439 a0                               and b
                           .data:0000043a fd                               defb 0xfd
                           .data:0000043b 01 e1 fd                         ld bc,0xfde1
                           .data:0000043e 01 e2 fd                         ld bc,0xfde2
                           .data:00000441 22 91 e1                         ld (0xe191),hl
                           .data:00000444 fd                               defb 0xfd
                           .data:00000445 f5                               push af
                           .data:00000446 09                               add hl,bc
                           .data:00000447 f0                               ret p
                           .data:00000448 a0                               and b
                           .data:00000449 fd                               defb 0xfd
                           .data:0000044a 01 e1 fd                         ld bc,0xfde1
                           .data:0000044d 01 e2 fd                         ld bc,0xfde2
                           .data:00000450 22 ea 00                         ld (0x00ea),hl
                           .data:00000453 54                               ld d,h
                           .data:00000454 19                               add hl,de
                           .data:00000455 91                               sub c
                           .data:00000456 e1                               pop hl
                           .data:00000457 fd                               defb 0xfd
                           .data:00000458 f5                               push af
                           .data:00000459 09                               add hl,bc
                           .data:0000045a f0                               ret p
                           .data:0000045b a0                               and b
                           .data:0000045c fd                               defb 0xfd
                           .data:0000045d 01 e1 fd                         ld bc,0xfde1
                           .data:00000460 01 e2 fd                         ld bc,0xfde2
                           .data:00000463 22 91 e1                         ld (0xe191),hl
                           .data:00000466 fd                               defb 0xfd
                           .data:00000467 f5                               push af
                           .data:00000468 09                               add hl,bc
                           .data:00000469 f0                               ret p
                           .data:0000046a 90                               sub b
                           .data:0000046b fd                               defb 0xfd
                           .data:0000046c 01 e1 fd                         ld bc,0xfde1
                           .data:0000046f 01 e2 fd                         ld bc,0xfde2
                           .data:00000472 22 91 e1                         ld (0xe191),hl
                           .data:00000475 fd                               defb 0xfd
                           .data:00000476 f5                               push af
                           .data:00000477 09                               add hl,bc
                           .data:00000478 90                               sub b
                           .data:00000479 fd                               defb 0xfd
                           .data:0000047a 01 e1 fd                         ld bc,0xfde1
                           .data:0000047d 01 e2 fd                         ld bc,0xfde2
                           .data:00000480 22 91 e1                         ld (0xe191),hl
                           .data:00000483 fd                               defb 0xfd
                           .data:00000484 f5                               push af
                           .data:00000485 09                               add hl,bc
                           .data:00000486 90                               sub b
                           .data:00000487 fd                               defb 0xfd
                           .data:00000488 01 e1 fd                         ld bc,0xfde1
                           .data:0000048b 01 e2 fd                         ld bc,0xfde2
                           .data:0000048e 22 ea 00                         ld (0x00ea),hl
                           .data:00000491 54                               ld d,h
                           .data:00000492 19                               add hl,de
                           .data:00000493 91                               sub c
                           .data:00000494 e1                               pop hl
                           .data:00000495 fd                               defb 0xfd
                           .data:00000496 f5                               push af
                           .data:00000497 09                               add hl,bc
                           .data:00000498 8f                               adc a,a
                           .data:00000499 08                               ex af,af'
                           .data:0000049a 87                               add a,a
                           .data:0000049b fe f5                            cp 0xf5
                           .data:0000049d 09                               add hl,bc
                           .data:0000049e f5                               push af
                           .data:0000049f 0a                               ld a,(bc)
                           .data:000004a0 87                               add a,a
                           .data:000004a1 fe f5                            cp 0xf5
                           .data:000004a3 0a                               ld a,(bc)
                           .data:000004a4 f5                               push af
                           .data:000004a5 0b                               dec bc
                           .data:000004a6 a0                               and b
                           .data:000004a7 fd                               defb 0xfd
                           .data:000004a8 87                               add a,a
                           .data:000004a9 fe 02                            cp 0x02
                           .data:000004ab f7                               rst 0x30
                           .data:000004ac 15                               dec d
                           .data:000004ad f5                               push af
                           .data:000004ae 0c                               inc c
                           .data:000004af 80                               add a,b
                           .data:000004b0 87                               add a,a
                           .data:000004b1 fd                               defb 0xfd
                           .data:000004b2 f5                               push af
                           .data:000004b3 0b                               dec bc
                           .data:000004b4 f5                               push af
                           .data:000004b5 0e 81                            ld c,0x81
                           .data:000004b7 00                               nop
                           .data:000004b8 02                               ld (bc),a
                           .data:000004b9 f5                               push af
                           .data:000004ba 0e 90                            ld c,0x90
                           .data:000004bc fd                               defb 0xfd
                           .data:000004bd 81                               add a,c
                           .data:000004be 00                               nop
                           .data:000004bf e9                               jp (hl)
                           .data:000004c0 fd                               defb 0xfd
                           .data:000004c1 59                               ld e,c
                           .data:000004c2 87                               add a,a
                           .data:000004c3 fe f5                            cp 0xf5
                           .data:000004c5 0b                               dec bc
                           .data:000004c6 f5                               push af
                           .data:000004c7 0b                               dec bc
                           .data:000004c8 f5                               push af
                           .data:000004c9 0a                               ld a,(bc)
                           .data:000004ca 81                               add a,c
                           .data:000004cb fd 5c                            ld e,iyh
                           .data:000004cd f0                               ret p
                           .data:000004ce e1                               pop hl
                           .data:000004cf fd e1                            pop iy
                           .data:000004d1 00                               nop
                           .data:000004d2 01 e1 00                         ld bc,0x00e1
                           .data:000004d5 01 e1 00                         ld bc,0x00e1
                           .data:000004d8 81                               add a,c
                           .data:000004d9 fd e1                            pop iy
                           .data:000004db 00                               nop
                           .data:000004dc f5                               push af
                           .data:000004dd 0c                               inc c
                           .data:000004de 81                               add a,c
                           .data:000004df 00                               nop
                           .data:000004e0 91                               sub c
                           .data:000004e1 d1                               pop de
                           .data:000004e2 a1                               and c
                           .data:000004e3 00                               nop
                           .data:000004e4 50                               ld d,b
                           .data:000004e5 81                               add a,c
                           .data:000004e6 00                               nop
                           .data:000004e7 f5                               push af
                           .data:000004e8 0d                               dec c
                           .data:000004e9 81                               add a,c
                           .data:000004ea 00                               nop
                           .data:000004eb f0                               ret p
                           .data:000004ec e1                               pop hl
                           .data:000004ed fd e1                            pop iy
                           .data:000004ef 00                               nop
                           .data:000004f0 01 e1 00                         ld bc,0x00e1
                           .data:000004f3 81                               add a,c
                           .data:000004f4 00                               nop
                           .data:000004f5 81                               add a,c
                           .data:000004f6 00                               nop
                           .data:000004f7 01 e1 00                         ld bc,0x00e1
                           .data:000004fa 81                               add a,c
                           .data:000004fb 00                               nop
                           .data:000004fc 81                               add a,c
                           .data:000004fd 00                               nop
                           .data:000004fe 81                               add a,c
                           .data:000004ff 00                               nop
                           .data:00000500 81                               add a,c
                           .data:00000501 00                               nop
                           .data:00000502 f5                               push af
                           .data:00000503 0c                               inc c
                           .data:00000504 f0                               ret p
                           .data:00000505 f7                               rst 0x30
                           .data:00000506 37                               scf
                           .data:00000507 82                               add a,d
                           .data:00000508 c1                               pop bc
                           .data:00000509 81                               add a,c
                           .data:0000050a 01 d1 82                         ld bc,0x82d1
                           .data:0000050d c1                               pop bc
                           .data:0000050e 81                               add a,c
                           .data:0000050f 00                               nop
                           .data:00000510 d1                               pop de
                           .data:00000511 82                               add a,d
                           .data:00000512 c1                               pop bc
                           .data:00000513 81                               add a,c
                           .data:00000514 00                               nop
                           .data:00000515 d1                               pop de
                           .data:00000516 82                               add a,d
                           .data:00000517 c1                               pop bc
                           .data:00000518 81                               add a,c
                           .data:00000519 00                               nop
                           .data:0000051a d1                               pop de
                           .data:0000051b 82                               add a,d
                           .data:0000051c c1                               pop bc
                           .data:0000051d 81                               add a,c
                           .data:0000051e c1                               pop bc
                           .data:0000051f d1                               pop de
                           .data:00000520 82                               add a,d
                           .data:00000521 c1                               pop bc
                           .data:00000522 81                               add a,c
                           .data:00000523 00                               nop
                           .data:00000524 d1                               pop de
                           .data:00000525 f0                               ret p
                           .data:00000526 87                               add a,a
                           .data:00000527 c1                               pop bc
                           .data:00000528 47                               ld b,a
                           .data:00000529 5c                               ld e,h
                           .data:0000052a 81                               add a,c
                           .data:0000052b 20 39                            jr nz,0x0566
                           .data:0000052d 19                               add hl,de
                           .data:0000052e 5c                               ld e,h
                           .data:0000052f 49                               ld c,c
                           .data:00000530 5c                               ld e,h
                           .data:00000531 f0                               ret p
                           .data:00000532 81                               add a,c
                           .data:00000533 c1                               pop bc
                           .data:00000534 d1                               pop de
                           .data:00000535 39                               add hl,sp
                           .data:00000536 a1                               and c
                           .data:00000537 00                               nop
                           .data:00000538 83                               add a,e
                           .data:00000539 c1                               pop bc
                           .data:0000053a d3 3b                            out (0x3b),a
                           .data:0000053c a3                               and e
                           .data:0000053d 00                               nop
                           .data:0000053e ab                               xor e
                           .data:0000053f 81                               add a,c
                           .data:00000540 00                               nop
                           .data:00000541 02                               ld (bc),a
                           .data:00000542 f7                               rst 0x30
                           .data:00000543 3e f7                            ld a,0xf7
                           .data:00000545 0e 02                            ld c,0x02
                           .data:00000547 01 f7 3e                         ld bc,0x3ef7
                           .data:0000054a 83                               add a,e
                           .data:0000054b c1                               pop bc
                           .data:0000054c d3 81                            out (0x81),a
                           .data:0000054e a1                               and c
                           .data:0000054f 00                               nop
                           .data:00000550 a3                               and e
                           .data:00000551 0f                               rrca
                           .data:00000552 3b                               dec sp
                           .data:00000553 ab                               xor e
                           .data:00000554 81                               add a,c
                           .data:00000555 00                               nop
                           .data:00000556 02                               ld (bc),a
                           .data:00000557 f7                               rst 0x30
                           .data:00000558 3e f7                            ld a,0xf7
                           .data:0000055a 0e f7                            ld c,0xf7
                           .data:0000055c 37                               scf
                           .data:0000055d 02                               ld (bc),a
                           .data:0000055e 01 f7 3e                         ld bc,0x3ef7
                           .data:00000561 f0                               ret p
                           .data:00000562 81                               add a,c
                           .data:00000563 c1                               pop bc
                           .data:00000564 d1                               pop de
                           .data:00000565 39                               add hl,sp
                           .data:00000566 a1                               and c
                           .data:00000567 00                               nop
                           .data:00000568 f0                               ret p
                           .data:00000569 e1                               pop hl
                           .data:0000056a fd e1                            pop iy
                           .data:0000056c 00                               nop
                           .data:0000056d 01 e1 00                         ld bc,0x00e1
                           .data:00000570 f5                               push af
                           .data:00000571 0c                               inc c
                           .data:00000572 f0                               ret p
                           .data:00000573 e1                               pop hl
                           .data:00000574 fd e1                            pop iy
                           .data:00000576 00                               nop
                           .data:00000577 01 e1 00                         ld bc,0x00e1
                           .data:0000057a f5                               push af
                           .data:0000057b 0c                               inc c
                           .data:0000057c f0                               ret p
                           .data:0000057d 82                               add a,d
                           .data:0000057e e1                               pop hl
                           .data:0000057f fd e1                            pop iy
                           .data:00000581 00                               nop
                           .data:00000582 01 e1 00                         ld bc,0x00e1
                           .data:00000585 81                               add a,c
                           .data:00000586 fd                               defb 0xfd
                           .data:00000587 81                               add a,c
                           .data:00000588 00                               nop
                           .data:00000589 81                               add a,c
                           .data:0000058a 00                               nop
                           .data:0000058b 81                               add a,c
                           .data:0000058c 00                               nop
                           .data:0000058d 01 81 00                         ld bc,0x0081
                           .data:00000590 e1                               pop hl
                           .data:00000591 fd e1                            pop iy
                           .data:00000593 00                               nop
                           .data:00000594 e9                               jp (hl)
                           .data:00000595 00                               nop
                           .data:00000596 51                               ld d,c
                           .data:00000597 01 57 01                         ld bc,0x0157
                           .data:0000059a e1                               pop hl
                           .data:0000059b 00                               nop
                           .data:0000059c 12                               ld (de),a
                           .data:0000059d 81                               add a,c
                           .data:0000059e 00                               nop
                           .data:0000059f 81                               add a,c
                           .data:000005a0 00                               nop
                           .data:000005a1 01 81 00                         ld bc,0x0081
                           .data:000005a4 01 e1 00                         ld bc,0x00e1
                           .data:000005a7 12                               ld (de),a
                           .data:000005a8 81                               add a,c
                           .data:000005a9 06 81                            ld b,0x81
                           .data:000005ab 00                               nop
                           .data:000005ac 01 81 00                         ld bc,0x0081
                           .data:000005af 01 e1 00                         ld bc,0x00e1
                           .data:000005b2 12                               ld (de),a
                           .data:000005b3 81                               add a,c
                           .data:000005b4 06 81                            ld b,0x81
                           .data:000005b6 00                               nop
                           .data:000005b7 01 81 00                         ld bc,0x0081
                           .data:000005ba 01 e1 00                         ld bc,0x00e1
                           .data:000005bd 12                               ld (de),a
                           .data:000005be 81                               add a,c
                           .data:000005bf 06 81                            ld b,0x81
                           .data:000005c1 00                               nop
                           .data:000005c2 01 a9 80                         ld bc,0x80a9
                           .data:000005c5 81                               add a,c
                           .data:000005c6 00                               nop
                           .data:000005c7 01 e1 00                         ld bc,0x00e1
                           .data:000005ca 12                               ld (de),a
                           .data:000005cb 81                               add a,c
                           .data:000005cc 06 81                            ld b,0x81
                           .data:000005ce 00                               nop
                           .data:000005cf 01 81 00                         ld bc,0x0081
                           .data:000005d2 01 e1 00                         ld bc,0x00e1
                           .data:000005d5 f5                               push af
                           .data:000005d6 0c                               inc c
                           .data:000005d7 f0                               ret p
                           .data:000005d8 e1                               pop hl
                           .data:000005d9 fd e1                            pop iy
                           .data:000005db 00                               nop
                           .data:000005dc 01 e1 00                         ld bc,0x00e1
                           .data:000005df f5                               push af
                           .data:000005e0 0c                               inc c
                           .data:000005e1 f0                               ret p
                           .data:000005e2 e1                               pop hl
                           .data:000005e3 fd e1                            pop iy
                           .data:000005e5 00                               nop
                           .data:000005e6 01 e1 00                         ld bc,0x00e1
                           .data:000005e9 01 e1 00                         ld bc,0x00e1
                           .data:000005ec f5                               push af
                           .data:000005ed 0c                               inc c
                           .data:000005ee f0                               ret p
                           .data:000005ef e1                               pop hl
                           .data:000005f0 fd e1                            pop iy
                           .data:000005f2 00                               nop
                           .data:000005f3 01 e1 00                         ld bc,0x00e1
                           .data:000005f6 f5                               push af
                           .data:000005f7 0c                               inc c
                           .data:000005f8 f0                               ret p
                           .data:000005f9 e1                               pop hl
                           .data:000005fa fd e1                            pop iy
                           .data:000005fc 00                               nop
                           .data:000005fd 01 e1 00                         ld bc,0x00e1
                           .data:00000600 01 e1 00                         ld bc,0x00e1
                           .data:00000603 81                               add a,c
                           .data:00000604 fe 81                            cp 0x81
                           .data:00000606 00                               nop
                           .data:00000607 81                               add a,c
                           .data:00000608 00                               nop
                           .data:00000609 81                               add a,c
                           .data:0000060a 00                               nop
                           .data:0000060b f5                               push af
                           .data:0000060c 0c                               inc c
                           .data:0000060d f0                               ret p
                           .data:0000060e e1                               pop hl
                           .data:0000060f fd e1                            pop iy
                           .data:00000611 00                               nop
                           .data:00000612 01 e1 00                         ld bc,0x00e1
                           .data:00000615 01 e1 00                         ld bc,0x00e1
                           .data:00000618 01 e1 00                         ld bc,0x00e1
                           .data:0000061b 81                               add a,c
                           .data:0000061c fe 81                            cp 0x81
                           .data:0000061e 00                               nop
                           .data:0000061f 81                               add a,c
                           .data:00000620 00                               nop
                           .data:00000621 81                               add a,c
                           .data:00000622 00                               nop
                           .data:00000623 f5                               push af
                           .data:00000624 0c                               inc c
                           .data:00000625 f0                               ret p
                           .data:00000626 f5                               push af
                           .data:00000627 0e 90                            ld c,0x90
                           .data:00000629 ff                               rst 0x38
                           .data:0000062a 82                               add a,d
                           .data:0000062b 00                               nop
                           .data:0000062c 47                               ld b,a
                           .data:0000062d 50                               ld d,b
                           .data:0000062e 1a                               ld a,(de)
                           .data:0000062f 59                               ld e,c
                           .data:00000630 01 81 00                         ld bc,0x0081
                           .data:00000633 57                               ld d,a
                           .data:00000634 f7                               rst 0x30
                           .data:00000635 3c                               inc a
                           .data:00000636 eb                               ex de,hl
                           .data:00000637 ff                               rst 0x38
                           .data:00000638 54                               ld d,h
                           .data:00000639 e6 00                            and 0x00
                           .data:0000063b 26 84                            ld h,0x84
                           .data:0000063d 3c                               inc a
                           .data:0000063e 94                               sub h
                           .data:0000063f 14                               inc d
                           .data:00000640 86                               add a,(hl)
                           .data:00000641 87                               add a,a
                           .data:00000642 f7                               rst 0x30
                           .data:00000643 3d                               dec a
                           .data:00000644 81                               add a,c
                           .data:00000645 0c                               inc c
                           .data:00000646 f7                               rst 0x30
                           .data:00000647 3c                               inc a
                           .data:00000648 87                               add a,a
                           .data:00000649 82                               add a,d
                           .data:0000064a ff                               rst 0x38
                           .data:0000064b 39                               add hl,sp
                           .data:0000064c 39                               add hl,sp
                           .data:0000064d 39                               add hl,sp
                           .data:0000064e 39                               add hl,sp
                           .data:0000064f 39                               add hl,sp
                           .data:00000650 1a                               ld a,(de)
                           .data:00000651 5c                               ld e,h
                           .data:00000652 87                               add a,a
                           .data:00000653 f7                               rst 0x30
                           .data:00000654 3d                               dec a
                           .data:00000655 87                               add a,a
                           .data:00000656 57                               ld d,a
                           .data:00000657 81                               add a,c
                           .data:00000658 30 39                            jr nc,0x0693
                           .data:0000065a 19                               add hl,de
                           .data:0000065b 5c                               ld e,h
                           .data:0000065c 49                               ld c,c
                           .data:0000065d 50                               ld d,b
                           .data:0000065e 02                               ld (bc),a
                           .data:0000065f f7                               rst 0x30
                           .data:00000660 31 49 50                         ld sp,0x5049
                           .data:00000663 57                               ld d,a
                           .data:00000664 97                               sub a
                           .data:00000665 00                               nop
                           .data:00000666 49                               ld c,c
                           .data:00000667 82                               add a,d
                           .data:00000668 87                               add a,a
                           .data:00000669 81                               add a,c
                           .data:0000066a ff                               rst 0x38
                           .data:0000066b 54                               ld d,h
                           .data:0000066c 87                               add a,a
                           .data:0000066d f7                               rst 0x30
                           .data:0000066e 3c                               inc a
                           .data:0000066f eb                               ex de,hl
                           .data:00000670 ff                               rst 0x38
                           .data:00000671 54                               ld d,h
                           .data:00000672 81                               add a,c
                           .data:00000673 0c                               inc c
                           .data:00000674 81                               add a,c
                           .data:00000675 81                               add a,c
                           .data:00000676 fc 81 f0                         call m,0xf081
                           .data:00000679 5f                               ld e,a
                           .data:0000067a a0                               and b
                           .data:0000067b ff                               rst 0x38
                           .data:0000067c f7                               rst 0x30
                           .data:0000067d 3c                               inc a
                           .data:0000067e eb                               ex de,hl
                           .data:0000067f ff                               rst 0x38
                           .data:00000680 54                               ld d,h
                           .data:00000681 87                               add a,a
                           .data:00000682 f7                               rst 0x30
                           .data:00000683 3d                               dec a
                           .data:00000684 87                               add a,a
                           .data:00000685 81                               add a,c
                           .data:00000686 0d                               dec c
                           .data:00000687 81                               add a,c
                           .data:00000688 81                               add a,c
                           .data:00000689 fc 81 f0                         call m,0xf081
                           .data:0000068c 81                               add a,c
                           .data:0000068d 00                               nop
                           .data:0000068e 91                               sub c
                           .data:0000068f d1                               pop de
                           .data:00000690 a1                               and c
                           .data:00000691 80                               add a,b
                           .data:00000692 50                               ld d,b
                           .data:00000693 81                               add a,c
                           .data:00000694 00                               nop
                           .data:00000695 f5                               push af
                           .data:00000696 0d                               dec c
                           .data:00000697 81                               add a,c
                           .data:00000698 00                               nop
                           .data:00000699 f0                               ret p
                           .data:0000069a 81                               add a,c
                           .data:0000069b 00                               nop
                           .data:0000069c 82                               add a,d
                           .data:0000069d 00                               nop
                           .data:0000069e 92                               sub d
                           .data:0000069f d1                               pop de
                           .data:000006a0 f5                               push af
                           .data:000006a1 0d                               dec c
                           .data:000006a2 5f                               ld e,a
                           .data:000006a3 81                               add a,c
                           .data:000006a4 fd 54                            ld d,iyh
                           .data:000006a6 81                               add a,c
                           .data:000006a7 00                               nop
                           .data:000006a8 f5                               push af
                           .data:000006a9 0d                               dec c
                           .data:000006aa f7                               rst 0x30
                           .data:000006ab 0d                               dec c
                           .data:000006ac 0d                               dec c
                           .data:000006ad 0d                               dec c
                           .data:000006ae 0d                               dec c
                           .data:000006af 0d                               dec c
                           .data:000006b0 0d                               dec c
                           .data:000006b1 0d                               dec c
                           .data:000006b2 0d                               dec c
                           .data:000006b3 0d                               dec c
                           .data:000006b4 81                               add a,c
                           .data:000006b5 00                               nop
                           .data:000006b6 f5                               push af
                           .data:000006b7 0d                               dec c
                           .data:000006b8 02                               ld (bc),a
                           .data:000006b9 f7                               rst 0x30
                           .data:000006ba 31 f0 81                         ld sp,0x81f0
                           .data:000006bd fd                               defb 0xfd
                           .data:000006be f7                               rst 0x30
                           .data:000006bf 15                               dec d
                           .data:000006c0 f0                               ret p
                           .data:000006c1 81                               add a,c
                           .data:000006c2 00                               nop
                           .data:000006c3 91                               sub c
                           .data:000006c4 d1                               pop de
                           .data:000006c5 39                               add hl,sp
                           .data:000006c6 f5                               push af
                           .data:000006c7 0d                               dec c
                           .data:000006c8 5f                               ld e,a
                           .data:000006c9 81                               add a,c
                           .data:000006ca 00                               nop
                           .data:000006cb 91                               sub c
                           .data:000006cc d1                               pop de
                           .data:000006cd f5                               push af
                           .data:000006ce 0d                               dec c
                           .data:000006cf 5f                               ld e,a
                           .data:000006d0 81                               add a,c
                           .data:000006d1 00                               nop
                           .data:000006d2 91                               sub c
                           .data:000006d3 d1                               pop de
                           .data:000006d4 39                               add hl,sp
                           .data:000006d5 f5                               push af
                           .data:000006d6 0d                               dec c
                           .data:000006d7 5f                               ld e,a
                           .data:000006d8 81                               add a,c
                           .data:000006d9 00                               nop
                           .data:000006da 91                               sub c
                           .data:000006db d1                               pop de
                           .data:000006dc f5                               push af
                           .data:000006dd 0d                               dec c
                           .data:000006de 5f                               ld e,a
                           .data:000006df 81                               add a,c
                           .data:000006e0 00                               nop
                           .data:000006e1 39                               add hl,sp
                           .data:000006e2 f5                               push af
                           .data:000006e3 0d                               dec c
                           .data:000006e4 5f                               ld e,a
                           .data:000006e5 e1                               pop hl
                           .data:000006e6 00                               nop
                           .data:000006e7 f5                               push af
                           .data:000006e8 0d                               dec c
                           .data:000006e9 5f                               ld e,a
                           .data:000006ea 83                               add a,e
                           .data:000006eb 00                               nop
                           .data:000006ec f7                               rst 0x30
                           .data:000006ed 0e b9                            ld c,0xb9
                           .data:000006ef fc 83 01                         call m,0x0183
                           .data:000006f2 02                               ld (bc),a
                           .data:000006f3 f7                               rst 0x30
                           .data:000006f4 3e b9                            ld a,0xb9
                           .data:000006f6 fc 21 39                         call m,0x3921
                           .data:000006f9 93                               sub e
                           .data:000006fa 8f                               adc a,a
                           .data:000006fb 00                               nop
                           .data:000006fc 82                               add a,d
                           .data:000006fd 21 22 3a                         ld hl,0x3a22
                           .data:00000700 a9                               xor c
                           .data:00000701 b9                               cp c
                           .data:00000702 fc 83 01                         call m,0x0183
                           .data:00000705 02                               ld (bc),a
                           .data:00000706 f7                               rst 0x30
                           .data:00000707 3e b9                            ld a,0xb9
                           .data:00000709 fc f0 81                         call m,0x81f0
                           .data:0000070c 00                               nop
                           .data:0000070d f5                               push af
                           .data:0000070e 0d                               dec c
                           .data:0000070f f0                               ret p
                           .data:00000710 01 f5 0d                         ld bc,0x0df5
                           .data:00000713 f0                               ret p
                           .data:00000714 81                               add a,c
                           .data:00000715 00                               nop
                           .data:00000716 82                               add a,d
                           .data:00000717 00                               nop
                           .data:00000718 83                               add a,e
                           .data:00000719 00                               nop
                           .data:0000071a d4 d6 ec                         call nc,0xecd6
                           .data:0000071d 54                               ld d,h
                           .data:0000071e 1b                               dec de
                           .data:0000071f 50                               ld d,b
                           .data:00000720 12                               ld (de),a
                           .data:00000721 11 5f 01                         ld de,0x015f
                           .data:00000724 f5                               push af
                           .data:00000725 0d                               dec c
                           .data:00000726 f0                               ret p
                           .data:00000727 02                               ld (bc),a
                           .data:00000728 b9                               cp c
                           .data:00000729 fc 01 02                         call m,0x0201
                           .data:0000072c f7                               rst 0x30
                           .data:0000072d 3e 81                            ld a,0x81
                           .data:0000072f 82                               add a,d
                           .data:00000730 fc 83 fc                         call m,0xfc83
                           .data:00000733 a1                               and c
                           .data:00000734 58                               ld e,b
                           .data:00000735 f0                               ret p
                           .data:00000736 02                               ld (bc),a
                           .data:00000737 f7                               rst 0x30
                           .data:00000738 27                               daa
                           .data:00000739 a0                               and b
                           .data:0000073a fd                               defb 0xfd
                           .data:0000073b 81                               add a,c
                           .data:0000073c 00                               nop
                           .data:0000073d f5                               push af
                           .data:0000073e 0d                               dec c
                           .data:0000073f 02                               ld (bc),a
                           .data:00000740 f7                               rst 0x30
                           .data:00000741 31 f7 3c                         ld sp,0x3cf7
                           .data:00000744 eb                               ex de,hl
                           .data:00000745 ff                               rst 0x38
                           .data:00000746 50                               ld d,b
                           .data:00000747 82                               add a,d
                           .data:00000748 fc ea ff                         call m,0xffea
                           .data:0000074b 50                               ld d,b
                           .data:0000074c f5                               push af
                           .data:0000074d 0e 57                            ld c,0x57
                           .data:0000074f 86                               add a,(hl)
                           .data:00000750 f7                               rst 0x30
                           .data:00000751 3c                               inc a
                           .data:00000752 85                               add a,l
                           .data:00000753 f0                               ret p
                           .data:00000754 0e fc                            ld c,0xfc
                           .data:00000756 0e f5                            ld c,0xf5
                           .data:00000758 0e 02                            ld c,0x02
                           .data:0000075a f7                               rst 0x30
                           .data:0000075b 27                               daa
                           .data:0000075c f0                               ret p
                           .data:0000075d 81                               add a,c
                           .data:0000075e 00                               nop
                           .data:0000075f 02                               ld (bc),a
                           .data:00000760 82                               add a,d
                           .data:00000761 fd 19                            add iy,de
                           .data:00000763 5e                               ld e,(hl)
                           .data:00000764 f0                               ret p
                           .data:00000765 81                               add a,c
                           .data:00000766 00                               nop
                           .data:00000767 83                               add a,e
                           .data:00000768 fe 82                            cp 0x82
                           .data:0000076a fd                               defb 0xfd
                           .data:0000076b d2 1b 19                         jp nc,0x191b
                           .data:0000076e 5e                               ld e,(hl)
                           .data:0000076f f0                               ret p
                           .data:00000770 12                               ld (de),a
                           .data:00000771 03                               inc bc
                           .data:00000772 1a                               ld a,(de)
                           .data:00000773 50                               ld d,b
                           .data:00000774 d3 11                            out (0x11),a
                           .data:00000776 1a                               ld a,(de)
                           .data:00000777 5f                               ld e,a
                           .data:00000778 f0                               ret p
                           .data:00000779 01 83 06                         ld bc,0x0683
                           .data:0000077c 19                               add hl,de
                           .data:0000077d 52                               ld d,d
                           .data:0000077e 82                               add a,d
                           .data:0000077f 06 d2                            ld b,0xd2
                           .data:00000781 1b                               dec de
                           .data:00000782 5f                               ld e,a
                           .data:00000783 f0                               ret p
                           .data:00000784 80                               add a,b
                           .data:00000785 40                               ld b,b
                           .data:00000786 20 10                            jr nz,0x0798
                           .data:00000788 08                               ex af,af'
                           .data:00000789 04                               inc b
                           .data:0000078a 02                               ld (bc),a
                           .data:0000078b 01 00 00                         ld bc,0x0000
                           .data:0000078e 00                               nop
                           .data:0000078f 00                               nop
                           .data:00000790 00                               nop
                           .data:00000791 00                               nop
                           .data:00000792 00                               nop
                           .data:00000793 00                               nop
                           .data:00000794 00                               nop
                           .data:00000795 ff                               rst 0x38
                           .data:00000796 55                               ld d,l
                           .data:00000797 aa                               xor d
                           .data:00000798 00                               nop
                           .data:00000799 00                               nop
                           .data:0000079a 04                               inc b
                           .data:0000079b 08                               ex af,af'
                           .data:0000079c 10 20                            djnz 0x07be
                           .data:0000079e 40                               ld b,b
                           .data:0000079f 80                               add a,b
                           .data:000007a0 fc fc f8                         call m,0xf8fc
                           .data:000007a3 f4 ec dc                         call p,0xdcec
                           .data:000007a6 bc                               cp h
                           .data:000007a7 7c                               ld a,h
                           .data:000007a8 84                               add a,h
                           .data:000007a9 fc 81 ff                         call m,0xff81
                           .data:000007ac b9                               cp c
                           .data:000007ad fc 83 01                         call m,0x0183
                           .data:000007b0 02                               ld (bc),a
                           .data:000007b1 f7                               rst 0x30
                           .data:000007b2 3e b9                            ld a,0xb9
                           .data:000007b4 fc a0 fc                         call m,0xfca0
                           .data:000007b7 a0                               and b
                           .data:000007b8 fc f7 10                         call m,0x10f7
                           .data:000007bb f7                               rst 0x30
                           .data:000007bc 10 f7                            djnz 0x07b5
                           .data:000007be 12                               ld (de),a
                           .data:000007bf f7                               rst 0x30
                           .data:000007c0 10 f7                            djnz 0x07b9
                           .data:000007c2 12                               ld (de),a
                           .data:000007c3 f7                               rst 0x30
                           .data:000007c4 10 f7                            djnz 0x07bd
                           .data:000007c6 2a 82 00                         ld hl,(0x0082)
                           .data:000007c9 f7                               rst 0x30
                           .data:000007ca 11 f7 10                         ld de,0x10f7
                           .data:000007cd 82                               add a,d
                           .data:000007ce 80                               add a,b
                           .data:000007cf f7                               rst 0x30
                           .data:000007d0 11 f7 10                         ld de,0x10f7
                           .data:000007d3 82                               add a,d
                           .data:000007d4 00                               nop
                           .data:000007d5 f7                               rst 0x30
                           .data:000007d6 11 f7 10                         ld de,0x10f7
                           .data:000007d9 82                               add a,d
                           .data:000007da 80                               add a,b
                           .data:000007db f7                               rst 0x30
                           .data:000007dc 11 f7 10                         ld de,0x10f7
                           .data:000007df 82                               add a,d
                           .data:000007e0 00                               nop
                           .data:000007e1 f7                               rst 0x30
                           .data:000007e2 11 f7 10                         ld de,0x10f7
                           .data:000007e5 f7                               rst 0x30
                           .data:000007e6 10 f7                            djnz 0x07df
                           .data:000007e8 10 f7                            djnz 0x07e1
                           .data:000007ea 10 f7                            djnz 0x07e3
                           .data:000007ec 10 f7                            djnz 0x07e5
                           .data:000007ee 11 f7 10                         ld de,0x10f7
                           .data:000007f1 f7                               rst 0x30
                           .data:000007f2 14                               inc d
                           .data:000007f3 f7                               rst 0x30
                           .data:000007f4 10 f7                            djnz 0x07ed
                           .data:000007f6 2e f7                            ld l,0xf7
                           .data:000007f8 10 f7                            djnz 0x07f1
                           .data:000007fa 3e f7                            ld a,0xf7
                           .data:000007fc 10 f7                            djnz 0x07f5
                           .data:000007fe 1e f7                            ld e,0xf7
                           .data:00000800 10 02                            djnz 0x0804
                           .data:00000802 f7                               rst 0x30
                           .data:00000803 27                               daa
                           .data:00000804 01 57 81                         ld bc,0x8157
                           .data:00000807 50                               ld d,b
                           .data:00000808 b9                               cp c
                           .data:00000809 fc 83 01                         call m,0x0183
                           .data:0000080c 02                               ld (bc),a
                           .data:0000080d f7                               rst 0x30
                           .data:0000080e 3e b9                            ld a,0xb9
                           .data:00000810 fc f7 10                         call m,0x10f7
                           .data:00000813 81                               add a,c
                           .data:00000814 ff                               rst 0x38
                           .data:00000815 b9                               cp c
                           .data:00000816 fc 83 01                         call m,0x0183
                           .data:00000819 02                               ld (bc),a
                           .data:0000081a f7                               rst 0x30
                           .data:0000081b 3e b9                            ld a,0xb9
                           .data:0000081d fc f0 b9                         call m,0xb9f0
                           .data:00000820 fc 01 02                         call m,0x0201
                           .data:00000823 f7                               rst 0x30
                           .data:00000824 3e 81                            ld a,0x81
                           .data:00000826 82                               add a,d
                           .data:00000827 fc 83 fc                         call m,0xfc83
                           .data:0000082a 21 58 b9                         ld hl,0xb958
                           .data:0000082d fc 83 01                         call m,0x0183
                           .data:00000830 02                               ld (bc),a
                           .data:00000831 f7                               rst 0x30
                           .data:00000832 3e b9                            ld a,0xb9
                           .data:00000834 fc f0 81                         call m,0x81f0
                           .data:00000837 aa                               xor d
                           .data:00000838 82                               add a,d
                           .data:00000839 83                               add a,e
                           .data:0000083a 84                               add a,h
                           .data:0000083b 85                               add a,l
                           .data:0000083c 86                               add a,(hl)
                           .data:0000083d 87                               add a,a
                           .data:0000083e 80                               add a,b
                           .data:0000083f 55                               ld d,l
                           .data:00000840 81                               add a,c
                           .data:00000841 82                               add a,d
                           .data:00000842 83                               add a,e
                           .data:00000843 84                               add a,h
                           .data:00000844 85                               add a,l
                           .data:00000845 86                               add a,(hl)
                           .data:00000846 a1                               and c
                           .data:00000847 a2                               and d
                           .data:00000848 a3                               and e
                           .data:00000849 a4                               and h
                           .data:0000084a a5                               and l
                           .data:0000084b a6                               and (hl)
                           .data:0000084c a7                               and a
                           .data:0000084d a9                               xor c
                           .data:0000084e ab                               xor e
                           .data:0000084f ad                               xor l
                           .data:00000850 a9                               xor c
                           .data:00000851 ab                               xor e
                           .data:00000852 a9                               xor c
                           .data:00000853 50                               ld d,b
                           .data:00000854 57                               ld d,a
                           .data:00000855 01 39 51                         ld bc,0x5139
                           .data:00000858 57                               ld d,a
                           .data:00000859 81                               add a,c
                           .data:0000085a ff                               rst 0x38
                           .data:0000085b 39                               add hl,sp
                           .data:0000085c 52                               ld d,d
                           .data:0000085d 57                               ld d,a
                           .data:0000085e 39                               add hl,sp
                           .data:0000085f 53                               ld d,e
                           .data:00000860 02                               ld (bc),a
                           .data:00000861 81                               add a,c
                           .data:00000862 00                               nop
                           .data:00000863 f0                               ret p
                           .data:00000864 01 04 02                         ld bc,0x0204
                           .data:00000867 83                               add a,e
                           .data:00000868 b2                               or d
                           .data:00000869 14                               inc d
                           .data:0000086a ec 3f 5c                         call pe,0x5c3f
                           .data:0000086d ea 3f 50                         jp pe,0x503f
                           .data:00000870 81                               add a,c
                           .data:00000871 01 f0 81                         ld bc,0x81f0
                           .data:00000874 3f                               ccf
                           .data:00000875 e9                               jp (hl)
                           .data:00000876 3f                               ccf
                           .data:00000877 01 02 50                         ld bc,0x5002
                           .data:0000087a 84                               add a,h
                           .data:0000087b 80                               add a,b
                           .data:0000087c 83                               add a,e
                           .data:0000087d b2                               or d
                           .data:0000087e 14                               inc d
                           .data:0000087f ec 3f 5c                         call pe,0x5c3f
                           .data:00000882 ea 3f 50                         jp pe,0x503f
                           .data:00000885 81                               add a,c
                           .data:00000886 01 f0 06                         ld bc,0x06f0
                           .data:00000889 81                               add a,c
                           .data:0000088a fc 82 0f                         call m,0x0f82
                           .data:0000088d 86                               add a,(hl)
                           .data:0000088e 00                               nop
                           .data:0000088f 85                               add a,l
                           .data:00000890 00                               nop
                           .data:00000891 84                               add a,h
                           .data:00000892 00                               nop
                           .data:00000893 83                               add a,e
                           .data:00000894 00                               nop
                           .data:00000895 82                               add a,d
                           .data:00000896 00                               nop
                           .data:00000897 81                               add a,c
                           .data:00000898 00                               nop
                           .data:00000899 80                               add a,b
                           .data:0000089a 00                               nop
                           .data:0000089b 87                               add a,a
                           .data:0000089c 00                               nop
                           .data:0000089d f3                               di
                           .data:0000089e 00                               nop
                           .data:0000089f 82                               add a,d
                           .data:000008a0 ff                               rst 0x38
                           .data:000008a1 1b                               dec de
                           .data:000008a2 eb                               ex de,hl
                           .data:000008a3 5c                               ld e,h
                           .data:000008a4 f3                               di
                           .data:000008a5 00                               nop
                           .data:000008a6 85                               add a,l
                           .data:000008a7 ff                               rst 0x38
                           .data:000008a8 ed 54                            defb 0xed, 0x54
                           .data:000008aa 1b                               dec de
                           .data:000008ab eb                               ex de,hl
                           .data:000008ac 5c                               ld e,h
                           .data:000008ad 86                               add a,(hl)
                           .data:000008ae 00                               nop
                           .data:000008af 85                               add a,l
                           .data:000008b0 00                               nop
                           .data:000008b1 84                               add a,h
                           .data:000008b2 00                               nop
                           .data:000008b3 83                               add a,e
                           .data:000008b4 00                               nop
                           .data:000008b5 82                               add a,d
                           .data:000008b6 00                               nop
                           .data:000008b7 81                               add a,c
                           .data:000008b8 00                               nop
                           .data:000008b9 80                               add a,b
                           .data:000008ba 00                               nop
                           .data:000008bb 87                               add a,a
                           .data:000008bc 00                               nop
                           .data:000008bd 11 5c 1e                         ld de,0x1e5c
                           .data:000008c0 5e                               ld e,(hl)
                           .data:000008c1 01 57 86                         ld bc,0x8657
                           .data:000008c4 00                               nop
                           .data:000008c5 85                               add a,l
                           .data:000008c6 00                               nop
                           .data:000008c7 84                               add a,h
                           .data:000008c8 00                               nop
                           .data:000008c9 83                               add a,e
                           .data:000008ca 00                               nop
                           .data:000008cb 82                               add a,d
                           .data:000008cc 00                               nop
                           .data:000008cd 81                               add a,c
                           .data:000008ce 00                               nop
                           .data:000008cf 80                               add a,b
                           .data:000008d0 00                               nop
                           .data:000008d1 87                               add a,a
                           .data:000008d2 00                               nop
                           .data:000008d3 81                               add a,c
                           .data:000008d4 f7                               rst 0x30
                           .data:000008d5 27                               daa
                           .data:000008d6 83                               add a,e
                           .data:000008d7 fc 50 81                         call m,0x8150
                           .data:000008da 01 f0 84                         ld bc,0x84f0
                           .data:000008dd f7                               rst 0x30
                           .data:000008de 28 81                            jr z,0x0861
                           .data:000008e0 50                               ld d,b
                           .data:000008e1 01 f0 f7                         ld bc,0xf7f0
                           .data:000008e4 11 81 54                         ld de,0x5481
                           .data:000008e7 94                               sub h
                           .data:000008e8 40                               ld b,b
                           .data:000008e9 82                               add a,d
                           .data:000008ea f7                               rst 0x30
                           .data:000008eb 27                               daa
                           .data:000008ec f7                               rst 0x30
                           .data:000008ed 11 f0 06                         ld de,0x06f0
                           .data:000008f0 82                               add a,d
                           .data:000008f1 fc f7 12                         call m,0x12f7
                           .data:000008f4 82                               add a,d
                           .data:000008f5 0f                               rrca
                           .data:000008f6 f7                               rst 0x30
                           .data:000008f7 12                               ld (de),a
                           .data:000008f8 82                               add a,d
                           .data:000008f9 fc f7 12                         call m,0x12f7
                           .data:000008fc 81                               add a,c
                           .data:000008fd 0f                               rrca
                           .data:000008fe 03                               inc bc
                           .data:000008ff f7                               rst 0x30
                           .data:00000900 15                               dec d
                           .data:00000901 81                               add a,c
                           .data:00000902 54                               ld d,h
                           .data:00000903 1e 52                            ld e,0x52
                           .data:00000905 82                               add a,d
                           .data:00000906 0f                               rrca
                           .data:00000907 f7                               rst 0x30
                           .data:00000908 12                               ld (de),a
                           .data:00000909 82                               add a,d
                           .data:0000090a fc f7 12                         call m,0x12f7
                           .data:0000090d 01 82 0f                         ld bc,0x0f82
                           .data:00000910 5f                               ld e,a
                           .data:00000911 82                               add a,d
                           .data:00000912 fc f7 12                         call m,0x12f7
                           .data:00000915 81                               add a,c
                           .data:00000916 01 82 a2                         ld bc,0xa282
                           .data:00000919 bf                               cp a
                           .data:0000091a 50                               ld d,b
                           .data:0000091b 11 f0 82                         ld de,0x82f0
                           .data:0000091e fc f7 12                         call m,0x12f7
                           .data:00000921 f0                               ret p
                           .data:00000922 03                               inc bc
                           .data:00000923 92                               sub d
                           .data:00000924 81                               add a,c
                           .data:00000925 0f                               rrca
                           .data:00000926 d4 84 1a                         call nc,0x1a84
                           .data:00000929 1b                               dec de
                           .data:0000092a 5e                               ld e,(hl)
                           .data:0000092b f0                               ret p
                           .data:0000092c 03                               inc bc
                           .data:0000092d 92                               sub d
                           .data:0000092e 85                               add a,l
                           .data:0000092f 0f                               rrca
                           .data:00000930 84                               add a,h
                           .data:00000931 d4 1a 1b                         call nc,0x1b1a
                           .data:00000934 5e                               ld e,(hl)
                           .data:00000935 f0                               ret p
                           .data:00000936 03                               inc bc
                           .data:00000937 81                               add a,c
                           .data:00000938 0f                               rrca
                           .data:00000939 d2 1b 5e                         jp nc,0x5e1b
                           .data:0000093c f0                               ret p
                           .data:0000093d 07                               rlca
                           .data:0000093e 81                               add a,c
                           .data:0000093f 12                               ld (de),a
                           .data:00000940 04                               inc b
                           .data:00000941 f7                               rst 0x30
                           .data:00000942 3c                               inc a
                           .data:00000943 f7                               rst 0x30
                           .data:00000944 3c                               inc a
                           .data:00000945 eb                               ex de,hl
                           .data:00000946 ff                               rst 0x38
                           .data:00000947 54                               ld d,h
                           .data:00000948 a0                               and b
                           .data:00000949 fc f7 12                         call m,0x12f7
                           .data:0000094c f7                               rst 0x30
                           .data:0000094d 3d                               dec a
                           .data:0000094e 03                               inc bc
                           .data:0000094f 01 e9 fc                         ld bc,0xfce9
                           .data:00000952 52                               ld d,d
                           .data:00000953 03                               inc bc
                           .data:00000954 57                               ld d,a
                           .data:00000955 02                               ld (bc),a
                           .data:00000956 7c                               ld a,h
                           .data:00000957 24                               inc h
                           .data:00000958 01 83 7c                         ld bc,0x7c83
                           .data:0000095b 24                               inc h
                           .data:0000095c eb                               ex de,hl
                           .data:0000095d 54                               ld d,h
                           .data:0000095e 11 e9 20                         ld de,0x20e9
                           .data:00000961 5a                               ld e,d
                           .data:00000962 03                               inc bc
                           .data:00000963 81                               add a,c
                           .data:00000964 00                               nop
                           .data:00000965 57                               ld d,a
                           .data:00000966 1a                               ld a,(de)
                           .data:00000967 5c                               ld e,h
                           .data:00000968 03                               inc bc
                           .data:00000969 01 f0 90                         ld bc,0x90f0
                           .data:0000096c fc f7 06                         call m,0x06f7
                           .data:0000096f f0                               ret p
                           .data:00000970 81                               add a,c
                           .data:00000971 90                               sub b
                           .data:00000972 39                               add hl,sp
                           .data:00000973 19                               add hl,de
                           .data:00000974 5c                               ld e,h
                           .data:00000975 f0                               ret p
                           .data:00000976 06 82                            ld b,0x82
                           .data:00000978 0f                               rrca
                           .data:00000979 f7                               rst 0x30
                           .data:0000097a 13                               inc de
                           .data:0000097b 82                               add a,d
                           .data:0000097c fc f7 13                         call m,0x13f7
                           .data:0000097f 81                               add a,c
                           .data:00000980 0f                               rrca
                           .data:00000981 03                               inc bc
                           .data:00000982 f7                               rst 0x30
                           .data:00000983 15                               dec d
                           .data:00000984 81                               add a,c
                           .data:00000985 54                               ld d,h
                           .data:00000986 1e 52                            ld e,0x52
                           .data:00000988 82                               add a,d
                           .data:00000989 0f                               rrca
                           .data:0000098a f7                               rst 0x30
                           .data:0000098b 13                               inc de
                           .data:0000098c 82                               add a,d
                           .data:0000098d fc f7 13                         call m,0x13f7
                           .data:00000990 82                               add a,d
                           .data:00000991 0f                               rrca
                           .data:00000992 a2                               and d
                           .data:00000993 fc 5f 01                         call m,0x015f
                           .data:00000996 f0                               ret p
                           .data:00000997 81                               add a,c
                           .data:00000998 00                               nop
                           .data:00000999 f0                               ret p
                           .data:0000099a 80                               add a,b
                           .data:0000099b bb                               cp e
                           .data:0000099c fd                               defb 0xfd
                           .data:0000099d bb                               cp e
                           .data:0000099e 71                               ld (hl),c
                           .data:0000099f 72                               ld (hl),d
                           .data:000009a0 73                               ld (hl),e
                           .data:000009a1 74                               ld (hl),h
                           .data:000009a2 75                               ld (hl),l
                           .data:000009a3 76                               halt
                           .data:000009a4 77                               ld (hl),a
                           .data:000009a5 90                               sub b
                           .data:000009a6 00                               nop
                           .data:000009a7 bb                               cp e
                           .data:000009a8 71                               ld (hl),c
                           .data:000009a9 72                               ld (hl),d
                           .data:000009aa 73                               ld (hl),e
                           .data:000009ab 74                               ld (hl),h
                           .data:000009ac 75                               ld (hl),l
                           .data:000009ad 76                               halt
                           .data:000009ae 77                               ld (hl),a
                           .data:000009af 90                               sub b
                           .data:000009b0 00                               nop
                           .data:000009b1 b9                               cp c
                           .data:000009b2 71                               ld (hl),c
                           .data:000009b3 72                               ld (hl),d
                           .data:000009b4 bb                               cp e
                           .data:000009b5 fd                               defb 0xfd
                           .data:000009b6 f0                               ret p
                           .data:000009b7 80                               add a,b
                           .data:000009b8 bb                               cp e
                           .data:000009b9 fd                               defb 0xfd
                           .data:000009ba 79                               ld a,c
                           .data:000009bb a1                               and c
                           .data:000009bc fc 7a a2                         call m,0xa27a
                           .data:000009bf fc 7b a3                         call m,0xa37b
                           .data:000009c2 fc 7c a4                         call m,0xa47c
                           .data:000009c5 fc 7d a5                         call m,0xa57d
                           .data:000009c8 fc 7e a6                         call m,0xa67e
                           .data:000009cb fc 7f a7                         call m,0xa77f
                           .data:000009ce fc bb 90                         call m,0x90bb
                           .data:000009d1 00                               nop
                           .data:000009d2 79                               ld a,c
                           .data:000009d3 a1                               and c
                           .data:000009d4 fc 7a a2                         call m,0xa27a
                           .data:000009d7 fc 7b a3                         call m,0xa37b
                           .data:000009da fc 7c a4                         call m,0xa47c
                           .data:000009dd fc 7d a5                         call m,0xa57d
                           .data:000009e0 fc 7e a6                         call m,0xa67e
                           .data:000009e3 fc 7f a7                         call m,0xa77f
                           .data:000009e6 fc bb 90                         call m,0x90bb
                           .data:000009e9 00                               nop
                           .data:000009ea 79                               ld a,c
                           .data:000009eb a1                               and c
                           .data:000009ec fc 7a a2                         call m,0xa27a
                           .data:000009ef fc b9 bb                         call m,0xbbb9
                           .data:000009f2 fd                               defb 0xfd
                           .data:000009f3 f0                               ret p
                           .data:000009f4 72                               ld (hl),d
                           .data:000009f5 72                               ld (hl),d
                           .data:000009f6 72                               ld (hl),d
                           .data:000009f7 72                               ld (hl),d
                           .data:000009f8 72                               ld (hl),d
                           .data:000009f9 72                               ld (hl),d
                           .data:000009fa 72                               ld (hl),d
                           .data:000009fb 72                               ld (hl),d
                           .data:000009fc 72                               ld (hl),d
                           .data:000009fd 72                               ld (hl),d
                           .data:000009fe 72                               ld (hl),d
                           .data:000009ff 72                               ld (hl),d
                           .data:00000a00 72                               ld (hl),d
                           .data:00000a01 72                               ld (hl),d
                           .data:00000a02 72                               ld (hl),d
                           .data:00000a03 72                               ld (hl),d
                           .data:00000a04 f0                               ret p
                           .data:00000a05 01 71 71                         ld bc,0x7171
                           .data:00000a08 7a                               ld a,d
                           .data:00000a09 71                               ld (hl),c
                           .data:00000a0a 20 22                            jr nz,0x0a2e
                           .data:00000a0c 54                               ld d,h
                           .data:00000a0d 06 ae                            ld b,0xae
                           .data:00000a0f fc 06 82                         call m,0x8206
                           .data:00000a12 fc f7 14                         call m,0x14f7
                           .data:00000a15 82                               add a,d
                           .data:00000a16 0f                               rrca
                           .data:00000a17 f7                               rst 0x30
                           .data:00000a18 15                               dec d
                           .data:00000a19 82                               add a,d
                           .data:00000a1a fc f7 14                         call m,0x14f7
                           .data:00000a1d 81                               add a,c
                           .data:00000a1e 0f                               rrca
                           .data:00000a1f 03                               inc bc
                           .data:00000a20 f7                               rst 0x30
                           .data:00000a21 15                               dec d
                           .data:00000a22 81                               add a,c
                           .data:00000a23 54                               ld d,h
                           .data:00000a24 82                               add a,d
                           .data:00000a25 0f                               rrca
                           .data:00000a26 f7                               rst 0x30
                           .data:00000a27 15                               dec d
                           .data:00000a28 82                               add a,d
                           .data:00000a29 fc f7 14                         call m,0x14f7
                           .data:00000a2c 03                               inc bc
                           .data:00000a2d 01 82 0f                         ld bc,0x0f82
                           .data:00000a30 1e 5e                            ld e,0x5e
                           .data:00000a32 82                               add a,d
                           .data:00000a33 fc f7 15                         call m,0x15f7
                           .data:00000a36 01 71 71                         ld bc,0x7171
                           .data:00000a39 7a                               ld a,d
                           .data:00000a3a 71                               ld (hl),c
                           .data:00000a3b 20 22                            jr nz,0x0a5f
                           .data:00000a3d 54                               ld d,h
                           .data:00000a3e 06 ae                            ld b,0xae
                           .data:00000a40 fc 06 82                         call m,0x8206
                           .data:00000a43 fc f7 14                         call m,0x14f7
                           .data:00000a46 82                               add a,d
                           .data:00000a47 0f                               rrca
                           .data:00000a48 f7                               rst 0x30
                           .data:00000a49 15                               dec d
                           .data:00000a4a 82                               add a,d
                           .data:00000a4b fc f7 14                         call m,0x14f7
                           .data:00000a4e 81                               add a,c
                           .data:00000a4f 0f                               rrca
                           .data:00000a50 03                               inc bc
                           .data:00000a51 f7                               rst 0x30
                           .data:00000a52 15                               dec d
                           .data:00000a53 81                               add a,c
                           .data:00000a54 54                               ld d,h
                           .data:00000a55 82                               add a,d
                           .data:00000a56 0f                               rrca
                           .data:00000a57 f7                               rst 0x30
                           .data:00000a58 15                               dec d
                           .data:00000a59 82                               add a,d
                           .data:00000a5a fc f7 14                         call m,0x14f7
                           .data:00000a5d 03                               inc bc
                           .data:00000a5e 01 82 0f                         ld bc,0x0f82
                           .data:00000a61 1e 5e                            ld e,0x5e
                           .data:00000a63 82                               add a,d
                           .data:00000a64 fc f7 15                         call m,0x15f7
                           .data:00000a67 01 f0 81                         ld bc,0x81f0
                           .data:00000a6a 01 f0 03                         ld bc,0x03f0
                           .data:00000a6d 92                               sub d
                           .data:00000a6e 81                               add a,c
                           .data:00000a6f 0f                               rrca
                           .data:00000a70 a1                               and c
                           .data:00000a71 1f                               rra
                           .data:00000a72 71                               ld (hl),c
                           .data:00000a73 7c                               ld a,h
                           .data:00000a74 84                               add a,h
                           .data:00000a75 1a                               ld a,(de)
                           .data:00000a76 1b                               dec de
                           .data:00000a77 5e                               ld e,(hl)
                           .data:00000a78 f0                               ret p
                           .data:00000a79 03                               inc bc
                           .data:00000a7a 92                               sub d
                           .data:00000a7b 81                               add a,c
                           .data:00000a7c 0f                               rrca
                           .data:00000a7d a1                               and c
                           .data:00000a7e 1f                               rra
                           .data:00000a7f 71                               ld (hl),c
                           .data:00000a80 7c                               ld a,h
                           .data:00000a81 84                               add a,h
                           .data:00000a82 1a                               ld a,(de)
                           .data:00000a83 1b                               dec de
                           .data:00000a84 5e                               ld e,(hl)
                           .data:00000a85 f0                               ret p
                           .data:00000a86 03                               inc bc
                           .data:00000a87 92                               sub d
                           .data:00000a88 81                               add a,c
                           .data:00000a89 0f                               rrca
                           .data:00000a8a a1                               and c
                           .data:00000a8b 1f                               rra
                           .data:00000a8c 71                               ld (hl),c
                           .data:00000a8d 84                               add a,h
                           .data:00000a8e 74                               ld (hl),h
                           .data:00000a8f 1a                               ld a,(de)
                           .data:00000a90 1b                               dec de
                           .data:00000a91 5e                               ld e,(hl)
                           .data:00000a92 f0                               ret p
                           .data:00000a93 03                               inc bc
                           .data:00000a94 92                               sub d
                           .data:00000a95 81                               add a,c
                           .data:00000a96 0f                               rrca
                           .data:00000a97 a1                               and c
                           .data:00000a98 1f                               rra
                           .data:00000a99 71                               ld (hl),c
                           .data:00000a9a 84                               add a,h
                           .data:00000a9b 74                               ld (hl),h
                           .data:00000a9c 1a                               ld a,(de)
                           .data:00000a9d 1b                               dec de
                           .data:00000a9e 5e                               ld e,(hl)
                           .data:00000a9f f0                               ret p
                           .data:00000aa0 03                               inc bc
                           .data:00000aa1 81                               add a,c
                           .data:00000aa2 0f                               rrca
                           .data:00000aa3 a1                               and c
                           .data:00000aa4 1f                               rra
                           .data:00000aa5 71                               ld (hl),c
                           .data:00000aa6 72                               ld (hl),d
                           .data:00000aa7 1b                               dec de
                           .data:00000aa8 5e                               ld e,(hl)
                           .data:00000aa9 f0                               ret p
                           .data:00000aaa 03                               inc bc
                           .data:00000aab 81                               add a,c
                           .data:00000aac 0f                               rrca
                           .data:00000aad a1                               and c
                           .data:00000aae 1f                               rra
                           .data:00000aaf 71                               ld (hl),c
                           .data:00000ab0 72                               ld (hl),d
                           .data:00000ab1 1b                               dec de
                           .data:00000ab2 5e                               ld e,(hl)
                           .data:00000ab3 f0                               ret p
                           .data:00000ab4 81                               add a,c
                           .data:00000ab5 50                               ld d,b
                           .data:00000ab6 91                               sub c
                           .data:00000ab7 84                               add a,h
                           .data:00000ab8 ec fc 54                         call pe,0x54fc
                           .data:00000abb 19                               add hl,de
                           .data:00000abc 1b                               dec de
                           .data:00000abd 5e                               ld e,(hl)
                           .data:00000abe 01 f0 81                         ld bc,0x81f0
                           .data:00000ac1 ea fc 5c                         jp pe,0x5cfc
                           .data:00000ac4 1b                               dec de
                           .data:00000ac5 5e                               ld e,(hl)
                           .data:00000ac6 5f                               ld e,a
                           .data:00000ac7 81                               add a,c
                           .data:00000ac8 ea 3b 19                         jp pe,0x193b
                           .data:00000acb 5c                               ld e,h
                           .data:00000acc 1a                               ld a,(de)
                           .data:00000acd 5c                               ld e,h
                           .data:00000ace f0                               ret p
                           .data:00000acf 82                               add a,d
                           .data:00000ad0 fc 54 01                         call m,0x0154
                           .data:00000ad3 b9                               cp c
                           .data:00000ad4 fc 83 01                         call m,0x0183
                           .data:00000ad7 02                               ld (bc),a
                           .data:00000ad8 f7                               rst 0x30
                           .data:00000ad9 3e b9                            ld a,0xb9
                           .data:00000adb fc 8f 01                         call m,0x018f
                           .data:00000ade 81                               add a,c
                           .data:00000adf 00                               nop
                           .data:00000ae0 a9                               xor c
                           .data:00000ae1 fc b9 fc                         call m,0xfcb9
                           .data:00000ae4 83                               add a,e
                           .data:00000ae5 01 02 f7                         ld bc,0xf702
                           .data:00000ae8 3e b9                            ld a,0xb9
                           .data:00000aea fc f7 10                         call m,0x10f7
                           .data:00000aed 81                               add a,c
                           .data:00000aee fc b9 fc                         call m,0xfcb9
                           .data:00000af1 83                               add a,e
                           .data:00000af2 01 02 f7                         ld bc,0xf702
                           .data:00000af5 3e b9                            ld a,0xb9
                           .data:00000af7 fc f0 f7                         call m,0xf7f0
                           .data:00000afa 10 81                            djnz 0x0a7d
                           .data:00000afc 50                               ld d,b
                           .data:00000afd 81                               add a,c
                           .data:00000afe 5f                               ld e,a
                           .data:00000aff 81                               add a,c
                           .data:00000b00 fc 81 fc                         call m,0xfc81
                           .data:00000b03 82                               add a,d
                           .data:00000b04 03                               inc bc
                           .data:00000b05 84                               add a,h
                           .data:00000b06 85                               add a,l
                           .data:00000b07 fc 86 fc                         call m,0xfc86
                           .data:00000b0a 87                               add a,a
                           .data:00000b0b fc 80 fc                         call m,0xfc80
                           .data:00000b0e e9                               jp (hl)
                           .data:00000b0f 54                               ld d,h
                           .data:00000b10 ed 54                            defb 0xed, 0x54
                           .data:00000b12 ef                               rst 0x28
                           .data:00000b13 50                               ld d,b
                           .data:00000b14 02                               ld (bc),a
                           .data:00000b15 5f                               ld e,a
                           .data:00000b16 81                               add a,c
                           .data:00000b17 e9                               jp (hl)
                           .data:00000b18 fc 54 82                         call m,0x8254
                           .data:00000b1b fc e9 fc                         call m,0xfce9
                           .data:00000b1e 54                               ld d,h
                           .data:00000b1f 81                               add a,c
                           .data:00000b20 fc e9 fc                         call m,0xfce9
                           .data:00000b23 54                               ld d,h
                           .data:00000b24 83                               add a,e
                           .data:00000b25 fc eb fc                         call m,0xfceb
                           .data:00000b28 54                               ld d,h
                           .data:00000b29 81                               add a,c
                           .data:00000b2a fc e9 fc                         call m,0xfce9
                           .data:00000b2d 50                               ld d,b
                           .data:00000b2e 02                               ld (bc),a
                           .data:00000b2f 8f                               adc a,a
                           .data:00000b30 15                               dec d
                           .data:00000b31 b9                               cp c
                           .data:00000b32 00                               nop
                           .data:00000b33 00                               nop
                           .data:00000b34 e9                               jp (hl)
                           .data:00000b35 5c                               ld e,h
                           .data:00000b36 83                               add a,e
                           .data:00000b37 fc b9 e9                         call m,0xe9b9
                           .data:00000b3a fc 5c b9                         call m,0xb95c
                           .data:00000b3d e9                               jp (hl)
                           .data:00000b3e 5c                               ld e,h
                           .data:00000b3f b9                               cp c
                           .data:00000b40 fc e9 5c                         call m,0x5ce9
                           .data:00000b43 b9                               cp c
                           .data:00000b44 fc ea fc                         call m,0xfcea
                           .data:00000b47 5c                               ld e,h
                           .data:00000b48 01 39 39                         ld bc,0x3939
                           .data:00000b4b 39                               add hl,sp
                           .data:00000b4c 39                               add hl,sp
                           .data:00000b4d ea 00 54                         jp pe,0x5400
                           .data:00000b50 39                               add hl,sp
                           .data:00000b51 39                               add hl,sp
                           .data:00000b52 39                               add hl,sp
                           .data:00000b53 39                               add hl,sp
                           .data:00000b54 ea 00 50                         jp pe,0x5000
                           .data:00000b57 02                               ld (bc),a
                           .data:00000b58 8f                               adc a,a
                           .data:00000b59 15                               dec d
                           .data:00000b5a 01 02 38                         ld bc,0x3802
                           .data:00000b5d 38 38                            jr c,0x0b97
                           .data:00000b5f 38 eb                            jr c,0x0b4c
                           .data:00000b61 00                               nop
                           .data:00000b62 5c                               ld e,h
                           .data:00000b63 38 38                            jr c,0x0b9d
                           .data:00000b65 38 38                            jr c,0x0b9f
                           .data:00000b67 eb                               ex de,hl
                           .data:00000b68 00                               nop
                           .data:00000b69 5c                               ld e,h
                           .data:00000b6a 01 39 51                         ld bc,0x5139
                           .data:00000b6d 57                               ld d,a
                           .data:00000b6e 56                               ld d,(hl)
                           .data:00000b6f 57                               ld d,a
                           .data:00000b70 54                               ld d,h
                           .data:00000b71 57                               ld d,a
                           .data:00000b72 39                               add hl,sp
                           .data:00000b73 53                               ld d,e
                           .data:00000b74 57                               ld d,a
                           .data:00000b75 55                               ld d,l
                           .data:00000b76 57                               ld d,a
                           .data:00000b77 39                               add hl,sp
                           .data:00000b78 52                               ld d,d
                           .data:00000b79 57                               ld d,a
                           .data:00000b7a 39                               add hl,sp
                           .data:00000b7b 39                               add hl,sp
                           .data:00000b7c 50                               ld d,b
                           .data:00000b7d 02                               ld (bc),a
                           .data:00000b7e 8f                               adc a,a
                           .data:00000b7f 15                               dec d
                           .data:00000b80 01 02 82                         ld bc,0x8202
                           .data:00000b83 fc 84 fc                         call m,0xfc84
                           .data:00000b86 05                               dec b
                           .data:00000b87 84                               add a,h
                           .data:00000b88 fc 91 91                         call m,0x9191
                           .data:00000b8b 00                               nop
                           .data:00000b8c 91                               sub c
                           .data:00000b8d 91                               sub c
                           .data:00000b8e fc 91 fc                         call m,0xfc91
                           .data:00000b91 91                               sub c
                           .data:00000b92 fc 91 fc                         call m,0xfc91
                           .data:00000b95 11 e9 00                         ld de,0x00e9
                           .data:00000b98 8c                               adc a,h
                           .data:00000b99 18 99                            jr 0x0b34
                           .data:00000b9b 99                               sbc a,c
                           .data:00000b9c 00                               nop
                           .data:00000b9d 99                               sbc a,c
                           .data:00000b9e 99                               sbc a,c
                           .data:00000b9f fc 99 fc                         call m,0xfc99
                           .data:00000ba2 99                               sbc a,c
                           .data:00000ba3 fc 99 fc                         call m,0xfc99
                           .data:00000ba6 19                               add hl,de
                           .data:00000ba7 8c                               adc a,h
                           .data:00000ba8 18 01                            jr 0x0bab
                           .data:00000baa 82                               add a,d
                           .data:00000bab 03                               inc bc
                           .data:00000bac 84                               add a,h
                           .data:00000bad 85                               add a,l
                           .data:00000bae fc 06 85                         call m,0x8506
                           .data:00000bb1 fc 83 fc                         call m,0xfc83
                           .data:00000bb4 83                               add a,e
                           .data:00000bb5 fc d0 d0                         call m,0xd0d0
                           .data:00000bb8 00                               nop
                           .data:00000bb9 00                               nop
                           .data:00000bba d0                               ret nc
                           .data:00000bbb d0                               ret nc
                           .data:00000bbc fc d0 fc                         call m,0xfcd0
                           .data:00000bbf d0                               ret nc
                           .data:00000bc0 fc d0 fc                         call m,0xfcd0
                           .data:00000bc3 e9                               jp (hl)
                           .data:00000bc4 8c                               adc a,h
                           .data:00000bc5 18 d8                            jr 0x0b9f
                           .data:00000bc7 d8                               ret c
                           .data:00000bc8 00                               nop
                           .data:00000bc9 00                               nop
                           .data:00000bca d8                               ret c
                           .data:00000bcb d8                               ret c
                           .data:00000bcc fc d8 fc                         call m,0xfcd8
                           .data:00000bcf d8                               ret c
                           .data:00000bd0 fc d8 fc                         call m,0xfcd8
                           .data:00000bd3 8c                               adc a,h
                           .data:00000bd4 18 02                            jr 0x0bd8
                           .data:00000bd6 c0                               ret nz
                           .data:00000bd7 c0                               ret nz
                           .data:00000bd8 00                               nop
                           .data:00000bd9 c0                               ret nz
                           .data:00000bda c0                               ret nz
                           .data:00000bdb fc c0 fc                         call m,0xfcc0
                           .data:00000bde c0                               ret nz
                           .data:00000bdf fc c0 fc                         call m,0xfcc0
                           .data:00000be2 ea 00 54                         jp pe,0x5400
                           .data:00000be5 c8                               ret z
                           .data:00000be6 c8                               ret z
                           .data:00000be7 00                               nop
                           .data:00000be8 c8                               ret z
                           .data:00000be9 c8                               ret z
                           .data:00000bea fc c8 fc                         call m,0xfcc8
                           .data:00000bed c8                               ret z
                           .data:00000bee fc c8 fc                         call m,0xfcc8
                           .data:00000bf1 ea 00 54                         jp pe,0x5400
                           .data:00000bf4 05                               dec b
                           .data:00000bf5 81                               add a,c
                           .data:00000bf6 04                               inc b
                           .data:00000bf7 81                               add a,c
                           .data:00000bf8 fc 83 fc                         call m,0xfc83
                           .data:00000bfb 9a                               sbc a,d
                           .data:00000bfc ea fb 54                         jp pe,0x54fb
                           .data:00000bff 98                               sbc a,b
                           .data:00000c00 ea fc 54                         jp pe,0x54fc
                           .data:00000c03 98                               sbc a,b
                           .data:00000c04 fc e9 fc                         call m,0xfce9
                           .data:00000c07 54                               ld d,h
                           .data:00000c08 98                               sbc a,b
                           .data:00000c09 fc ea fc                         call m,0xfcea
                           .data:00000c0c 54                               ld d,h
                           .data:00000c0d 98                               sbc a,b
                           .data:00000c0e fc e9 fc                         call m,0xfce9
                           .data:00000c11 54                               ld d,h
                           .data:00000c12 98                               sbc a,b
                           .data:00000c13 fc ea fc                         call m,0xfcea
                           .data:00000c16 54                               ld d,h
                           .data:00000c17 05                               dec b
                           .data:00000c18 85                               add a,l
                           .data:00000c19 fc 90 90                         call m,0x9090
                           .data:00000c1c fc 90 fc                         call m,0xfc90
                           .data:00000c1f 90                               sub b
                           .data:00000c20 fc 90 fc                         call m,0xfc90
                           .data:00000c23 01 e9 fc                         ld bc,0xfce9
                           .data:00000c26 54                               ld d,h
                           .data:00000c27 02                               ld (bc),a
                           .data:00000c28 81                               add a,c
                           .data:00000c29 fc a0 ea                         call m,0xeaa0
                           .data:00000c2c fc 54 81                         call m,0x8154
                           .data:00000c2f fc a0 fc                         call m,0xfca0
                           .data:00000c32 ea fc 54                         jp pe,0x54fc
                           .data:00000c35 81                               add a,c
                           .data:00000c36 fc a0 fc                         call m,0xfca0
                           .data:00000c39 ea fc 54                         jp pe,0x54fc
                           .data:00000c3c 81                               add a,c
                           .data:00000c3d fc a0 fc                         call m,0xfca0
                           .data:00000c40 ea fc 54                         jp pe,0x54fc
                           .data:00000c43 81                               add a,c
                           .data:00000c44 fc a0 fc                         call m,0xfca0
                           .data:00000c47 ea fc 54                         jp pe,0x54fc
                           .data:00000c4a 01 82 81                         ld bc,0x8182
                           .data:00000c4d fc e9 54                         call m,0x54e9
                           .data:00000c50 e9                               jp (hl)
                           .data:00000c51 00                               nop
                           .data:00000c52 54                               ld d,h
                           .data:00000c53 e9                               jp (hl)
                           .data:00000c54 54                               ld d,h
                           .data:00000c55 e9                               jp (hl)
                           .data:00000c56 fc 54 e9                         call m,0xe954
                           .data:00000c59 fc 54 e9                         call m,0xe954
                           .data:00000c5c fc 54 e9                         call m,0xe954
                           .data:00000c5f fc 50 02                         call m,0x0250
                           .data:00000c62 8f                               adc a,a
                           .data:00000c63 15                               dec d
                           .data:00000c64 81                               add a,c
                           .data:00000c65 18 8f                            jr 0x0bf6
                           .data:00000c67 57                               ld d,a
                           .data:00000c68 8f                               adc a,a
                           .data:00000c69 18 57                            jr 0x0cc2
                           .data:00000c6b 81                               add a,c
                           .data:00000c6c 18 81                            jr 0x0bef
                           .data:00000c6e fc 82 fc                         call m,0xfc82
                           .data:00000c71 8f                               adc a,a
                           .data:00000c72 57                               ld d,a
                           .data:00000c73 81                               add a,c
                           .data:00000c74 18 81                            jr 0x0bf7
                           .data:00000c76 fc 8f fc                         call m,0xfc8f
                           .data:00000c79 57                               ld d,a
                           .data:00000c7a 11 81 fc                         ld de,0xfc81
                           .data:00000c7d 8f                               adc a,a
                           .data:00000c7e fc 57 81                         call m,0x8157
                           .data:00000c81 19                               add hl,de
                           .data:00000c82 81                               add a,c
                           .data:00000c83 fc 82 fc                         call m,0xfc82
                           .data:00000c86 8f                               adc a,a
                           .data:00000c87 fc 57 81                         call m,0x8157
                           .data:00000c8a 19                               add hl,de
                           .data:00000c8b 81                               add a,c
                           .data:00000c8c fc 8f fc                         call m,0xfc8f
                           .data:00000c8f 57                               ld d,a
                           .data:00000c90 57                               ld d,a
                           .data:00000c91 5f                               ld e,a
                           .data:00000c92 02                               ld (bc),a
                           .data:00000c93 8f                               adc a,a
                           .data:00000c94 15                               dec d
                           .data:00000c95 82                               add a,d
                           .data:00000c96 01 81 83                         ld bc,0x8381
                           .data:00000c99 13                               inc de
                           .data:00000c9a ea 54 83                         jp pe,0x8354
                           .data:00000c9d e9                               jp (hl)
                           .data:00000c9e 54                               ld d,h
                           .data:00000c9f 81                               add a,c
                           .data:00000ca0 e9                               jp (hl)
                           .data:00000ca1 00                               nop
                           .data:00000ca2 54                               ld d,h
                           .data:00000ca3 ea 50 02                         jp pe,0x0250
                           .data:00000ca6 8f                               adc a,a
                           .data:00000ca7 15                               dec d
                           .data:00000ca8 81                               add a,c
                           .data:00000ca9 55                               ld d,l
                           .data:00000caa 82                               add a,d
                           .data:00000cab 83                               add a,e
                           .data:00000cac aa                               xor d
                           .data:00000cad a1                               and c
                           .data:00000cae 8c                               adc a,h
                           .data:00000caf 1a                               ld a,(de)
                           .data:00000cb0 81                               add a,c
                           .data:00000cb1 a1                               and c
                           .data:00000cb2 aa                               xor d
                           .data:00000cb3 54                               ld d,h
                           .data:00000cb4 81                               add a,c
                           .data:00000cb5 84                               add a,h
                           .data:00000cb6 fc 83 fc                         call m,0xfc83
                           .data:00000cb9 a1                               and c
                           .data:00000cba 54                               ld d,h
                           .data:00000cbb 81                               add a,c
                           .data:00000cbc a1                               and c
                           .data:00000cbd fc 54 81                         call m,0x8154
                           .data:00000cc0 05                               dec b
                           .data:00000cc1 a1                               and c
                           .data:00000cc2 fc 54 81                         call m,0x8154
                           .data:00000cc5 84                               add a,h
                           .data:00000cc6 fc a1 fc                         call m,0xfca1
                           .data:00000cc9 54                               ld d,h
                           .data:00000cca 81                               add a,c
                           .data:00000ccb a1                               and c
                           .data:00000ccc fc 54 01                         call m,0x0154
                           .data:00000ccf 21 54 81                         ld hl,0x8154
                           .data:00000cd2 a9                               xor c
                           .data:00000cd3 56                               ld d,(hl)
                           .data:00000cd4 81                               add a,c
                           .data:00000cd5 a9                               xor c
                           .data:00000cd6 33                               inc sp
                           .data:00000cd7 55                               ld d,l
                           .data:00000cd8 81                               add a,c
                           .data:00000cd9 a9                               xor c
                           .data:00000cda 56                               ld d,(hl)
                           .data:00000cdb 81                               add a,c
                           .data:00000cdc a9                               xor c
                           .data:00000cdd fc 56 81                         call m,0x8156
                           .data:00000ce0 a9                               xor c
                           .data:00000ce1 fc 56 81                         call m,0x8156
                           .data:00000ce4 a9                               xor c
                           .data:00000ce5 fc 56 81                         call m,0x8156
                           .data:00000ce8 a9                               xor c
                           .data:00000ce9 fc 56 01                         call m,0x0156
                           .data:00000cec 29                               add hl,hl
                           .data:00000ced e9                               jp (hl)
                           .data:00000cee 00                               nop
                           .data:00000cef 54                               ld d,h
                           .data:00000cf0 82                               add a,d
                           .data:00000cf1 b1                               or c
                           .data:00000cf2 54                               ld d,h
                           .data:00000cf3 81                               add a,c
                           .data:00000cf4 b1                               or c
                           .data:00000cf5 aa                               xor d
                           .data:00000cf6 56                               ld d,(hl)
                           .data:00000cf7 81                               add a,c
                           .data:00000cf8 81                               add a,c
                           .data:00000cf9 fc b1 54                         call m,0x54b1
                           .data:00000cfc 81                               add a,c
                           .data:00000cfd b1                               or c
                           .data:00000cfe fc 54 81                         call m,0x8154
                           .data:00000d01 b1                               or c
                           .data:00000d02 fc 54 81                         call m,0x8154
                           .data:00000d05 b1                               or c
                           .data:00000d06 fc 54 81                         call m,0x8154
                           .data:00000d09 b1                               or c
                           .data:00000d0a fc 54 01                         call m,0x0154
                           .data:00000d0d 31 e9 00                         ld sp,0x00e9
                           .data:00000d10 54                               ld d,h
                           .data:00000d11 81                               add a,c
                           .data:00000d12 a1                               and c
                           .data:00000d13 50                               ld d,b
                           .data:00000d14 b1                               or c
                           .data:00000d15 54                               ld d,h
                           .data:00000d16 81                               add a,c
                           .data:00000d17 04                               inc b
                           .data:00000d18 81                               add a,c
                           .data:00000d19 fc fa ea                         call m,0xeafa
                           .data:00000d1c fb                               ei
                           .data:00000d1d 54                               ld d,h
                           .data:00000d1e f9                               ld sp,hl
                           .data:00000d1f ea 54 f9                         jp pe,0xf954
                           .data:00000d22 fc e9 54                         call m,0x54e9
                           .data:00000d25 f9                               ld sp,hl
                           .data:00000d26 fc ea 54                         call m,0x54ea
                           .data:00000d29 f9                               ld sp,hl
                           .data:00000d2a fc e9 54                         call m,0x54e9
                           .data:00000d2d f9                               ld sp,hl
                           .data:00000d2e fc ea 88                         call m,0x88ea
                           .data:00000d31 1a                               ld a,(de)
                           .data:00000d32 02                               ld (bc),a
                           .data:00000d33 8f                               adc a,a
                           .data:00000d34 15                               dec d
                           .data:00000d35 01 e1 55                         ld bc,0x55e1
                           .data:00000d38 e9                               jp (hl)
                           .data:00000d39 00                               nop
                           .data:00000d3a 8c                               adc a,h
                           .data:00000d3b 1c                               inc e
                           .data:00000d3c 82                               add a,d
                           .data:00000d3d fc 81 fc                         call m,0xfc81
                           .data:00000d40 03                               inc bc
                           .data:00000d41 e3                               ex (sp),hl
                           .data:00000d42 eb                               ex de,hl
                           .data:00000d43 00                               nop
                           .data:00000d44 8c                               adc a,h
                           .data:00000d45 1c                               inc e
                           .data:00000d46 12                               ld (de),a
                           .data:00000d47 e3                               ex (sp),hl
                           .data:00000d48 eb                               ex de,hl
                           .data:00000d49 00                               nop
                           .data:00000d4a 8c                               adc a,h
                           .data:00000d4b 1c                               inc e
                           .data:00000d4c e3                               ex (sp),hl
                           .data:00000d4d fc eb 00                         call m,0x00eb
                           .data:00000d50 8c                               adc a,h
                           .data:00000d51 1c                               inc e
                           .data:00000d52 e3                               ex (sp),hl
                           .data:00000d53 fc eb 00                         call m,0x00eb
                           .data:00000d56 8c                               adc a,h
                           .data:00000d57 1c                               inc e
                           .data:00000d58 01 e3 fc                         ld bc,0xfce3
                           .data:00000d5b eb                               ex de,hl
                           .data:00000d5c 00                               nop
                           .data:00000d5d 8c                               adc a,h
                           .data:00000d5e 1c                               inc e
                           .data:00000d5f 11 e3 fc                         ld de,0xfce3
                           .data:00000d62 eb                               ex de,hl
                           .data:00000d63 00                               nop
                           .data:00000d64 8c                               adc a,h
                           .data:00000d65 1c                               inc e
                           .data:00000d66 82                               add a,d
                           .data:00000d67 fc e3 fc                         call m,0xfce3
                           .data:00000d6a eb                               ex de,hl
                           .data:00000d6b 00                               nop
                           .data:00000d6c 8c                               adc a,h
                           .data:00000d6d 1c                               inc e
                           .data:00000d6e 1a                               ld a,(de)
                           .data:00000d6f 82                               add a,d
                           .data:00000d70 fc e3 fc                         call m,0xfce3
                           .data:00000d73 eb                               ex de,hl
                           .data:00000d74 00                               nop
                           .data:00000d75 8c                               adc a,h
                           .data:00000d76 1c                               inc e
                           .data:00000d77 04                               inc b
                           .data:00000d78 e3                               ex (sp),hl
                           .data:00000d79 fc eb 00                         call m,0x00eb
                           .data:00000d7c 8c                               adc a,h
                           .data:00000d7d 1c                               inc e
                           .data:00000d7e 90                               sub b
                           .data:00000d7f fc e3 fc                         call m,0xfce3
                           .data:00000d82 eb                               ex de,hl
                           .data:00000d83 00                               nop
                           .data:00000d84 8c                               adc a,h
                           .data:00000d85 1c                               inc e
                           .data:00000d86 85                               add a,l
                           .data:00000d87 aa                               xor d
                           .data:00000d88 01 e1 12                         ld bc,0x12e1
                           .data:00000d8b e1                               pop hl
                           .data:00000d8c ed fc                            defb 0xed, 0xfc
                           .data:00000d8e 54                               ld d,h
                           .data:00000d8f 01 85 55                         ld bc,0x5585
                           .data:00000d92 e1                               pop hl
                           .data:00000d93 fc e1 fc                         call m,0xfce1
                           .data:00000d96 ed fc                            defb 0xed, 0xfc
                           .data:00000d98 54                               ld d,h
                           .data:00000d99 01 85 33                         ld bc,0x3385
                           .data:00000d9c e1                               pop hl
                           .data:00000d9d fc e1 fc                         call m,0xfce1
                           .data:00000da0 ed fc                            defb 0xed, 0xfc
                           .data:00000da2 54                               ld d,h
                           .data:00000da3 01 85 cc                         ld bc,0xcc85
                           .data:00000da6 1a                               ld a,(de)
                           .data:00000da7 82                               add a,d
                           .data:00000da8 fc e1 fc                         call m,0xfce1
                           .data:00000dab 90                               sub b
                           .data:00000dac fc e1 fc                         call m,0xfce1
                           .data:00000daf ed fc                            defb 0xed, 0xfc
                           .data:00000db1 54                               ld d,h
                           .data:00000db2 01 85 55                         ld bc,0x5585
                           .data:00000db5 82                               add a,d
                           .data:00000db6 fc e1 fc                         call m,0xfce1
                           .data:00000db9 90                               sub b
                           .data:00000dba fc e1 fc                         call m,0xfce1
                           .data:00000dbd ed fc                            defb 0xed, 0xfc
                           .data:00000dbf 54                               ld d,h
                           .data:00000dc0 e9                               jp (hl)
                           .data:00000dc1 55                               ld d,l
                           .data:00000dc2 54                               ld d,h
                           .data:00000dc3 82                               add a,d
                           .data:00000dc4 fc 82 fc                         call m,0xfc82
                           .data:00000dc7 05                               dec b
                           .data:00000dc8 e5                               push hl
                           .data:00000dc9 ed 54                            defb 0xed, 0x54
                           .data:00000dcb 12                               ld (de),a
                           .data:00000dcc e9                               jp (hl)
                           .data:00000dcd 54                               ld d,h
                           .data:00000dce ed fc                            defb 0xed, 0xfc
                           .data:00000dd0 54                               ld d,h
                           .data:00000dd1 e9                               jp (hl)
                           .data:00000dd2 fc 54 ed                         call m,0xed54
                           .data:00000dd5 fc 54 14                         call m,0x1454
                           .data:00000dd8 e9                               jp (hl)
                           .data:00000dd9 fc 54 04                         call m,0x0454
                           .data:00000ddc ed fc                            defb 0xed, 0xfc
                           .data:00000dde 54                               ld d,h
                           .data:00000ddf 90                               sub b
                           .data:00000de0 fc e9 fc                         call m,0xfce9
                           .data:00000de3 54                               ld d,h
                           .data:00000de4 1a                               ld a,(de)
                           .data:00000de5 82                               add a,d
                           .data:00000de6 fc ed fc                         call m,0xfced
                           .data:00000de9 54                               ld d,h
                           .data:00000dea 90                               sub b
                           .data:00000deb fc e9 fc                         call m,0xfce9
                           .data:00000dee 54                               ld d,h
                           .data:00000def 82                               add a,d
                           .data:00000df0 fc ed fc                         call m,0xfced
                           .data:00000df3 54                               ld d,h
                           .data:00000df4 90                               sub b
                           .data:00000df5 fc e9 fc                         call m,0xfce9
                           .data:00000df8 54                               ld d,h
                           .data:00000df9 82                               add a,d
                           .data:00000dfa aa                               xor d
                           .data:00000dfb e1                               pop hl
                           .data:00000dfc e9                               jp (hl)
                           .data:00000dfd 55                               ld d,l
                           .data:00000dfe 54                               ld d,h
                           .data:00000dff e3                               ex (sp),hl
                           .data:00000e00 eb                               ex de,hl
                           .data:00000e01 50                               ld d,b
                           .data:00000e02 02                               ld (bc),a
                           .data:00000e03 8f                               adc a,a
                           .data:00000e04 15                               dec d
                           .data:00000e05 82                               add a,d
                           .data:00000e06 fc 50 f0                         call m,0xf050
                           .data:00000e09 02                               ld (bc),a
                           .data:00000e0a f7                               rst 0x30
                           .data:00000e0b 31 01 b9                         ld sp,0xb901
                           .data:00000e0e fc 83 01                         call m,0x0183
                           .data:00000e11 02                               ld (bc),a
                           .data:00000e12 f7                               rst 0x30
                           .data:00000e13 3e b9                            ld a,0xb9
                           .data:00000e15 fc 8f 01                         call m,0x018f
                           .data:00000e18 02                               ld (bc),a
                           .data:00000e19 f0                               ret p
                           .data:00000e1a 02                               ld (bc),a
                           .data:00000e1b 00                               nop
                           .data:00000e1c 00                               nop
                           .data:00000e1d 07                               rlca
                           .data:00000e1e 0a                               ld a,(bc)
                           .data:00000e1f 0f                               rrca
                           .data:00000e20 f7                               rst 0x30
                           .data:00000e21 37                               scf
                           .data:00000e22 07                               rlca
                           .data:00000e23 81                               add a,c
                           .data:00000e24 1f                               rra
                           .data:00000e25 83                               add a,e
                           .data:00000e26 c1                               pop bc
                           .data:00000e27 84                               add a,h
                           .data:00000e28 01 f7 3c                         ld bc,0x3cf7
                           .data:00000e2b f7                               rst 0x30
                           .data:00000e2c 1f                               rra
                           .data:00000e2d f7                               rst 0x30
                           .data:00000e2e 1f                               rra
                           .data:00000e2f f7                               rst 0x30
                           .data:00000e30 3d                               dec a
                           .data:00000e31 f7                               rst 0x30
                           .data:00000e32 37                               scf
                           .data:00000e33 82                               add a,d
                           .data:00000e34 fc 54 b9                         call m,0xb954
                           .data:00000e37 fc 83 01                         call m,0x0183
                           .data:00000e3a 02                               ld (bc),a
                           .data:00000e3b f7                               rst 0x30
                           .data:00000e3c 3e b9                            ld a,0xb9
                           .data:00000e3e fc 8f 01                         call m,0x018f
                           .data:00000e41 25                               dec h
                           .data:00000e42 50                               ld d,b
                           .data:00000e43 84                               add a,h
                           .data:00000e44 50                               ld d,b
                           .data:00000e45 81                               add a,c
                           .data:00000e46 03                               inc bc
                           .data:00000e47 f7                               rst 0x30
                           .data:00000e48 15                               dec d
                           .data:00000e49 f0                               ret p
                           .data:00000e4a f7                               rst 0x30
                           .data:00000e4b 37                               scf
                           .data:00000e4c 07                               rlca
                           .data:00000e4d 81                               add a,c
                           .data:00000e4e 1f                               rra
                           .data:00000e4f 83                               add a,e
                           .data:00000e50 c1                               pop bc
                           .data:00000e51 84                               add a,h
                           .data:00000e52 01 f7 3c                         ld bc,0x3cf7
                           .data:00000e55 f7                               rst 0x30
                           .data:00000e56 1f                               rra
                           .data:00000e57 f7                               rst 0x30
                           .data:00000e58 1f                               rra
                           .data:00000e59 f7                               rst 0x30
                           .data:00000e5a 3d                               dec a
                           .data:00000e5b f7                               rst 0x30
                           .data:00000e5c 37                               scf
                           .data:00000e5d 82                               add a,d
                           .data:00000e5e fc 54 b9                         call m,0xb954
                           .data:00000e61 fc 83 01                         call m,0x0183
                           .data:00000e64 02                               ld (bc),a
                           .data:00000e65 f7                               rst 0x30
                           .data:00000e66 3e b9                            ld a,0xb9
                           .data:00000e68 fc 8f 01                         call m,0x018f
                           .data:00000e6b 25                               dec h
                           .data:00000e6c 50                               ld d,b
                           .data:00000e6d 84                               add a,h
                           .data:00000e6e 50                               ld d,b
                           .data:00000e6f 81                               add a,c
                           .data:00000e70 03                               inc bc
                           .data:00000e71 f7                               rst 0x30
                           .data:00000e72 15                               dec d
                           .data:00000e73 f0                               ret p
                           .data:00000e74 f7                               rst 0x30
                           .data:00000e75 37                               scf
                           .data:00000e76 07                               rlca
                           .data:00000e77 81                               add a,c
                           .data:00000e78 1f                               rra
                           .data:00000e79 83                               add a,e
                           .data:00000e7a c1                               pop bc
                           .data:00000e7b 84                               add a,h
                           .data:00000e7c 01 f7 3c                         ld bc,0x3cf7
                           .data:00000e7f f7                               rst 0x30
                           .data:00000e80 1f                               rra
                           .data:00000e81 f7                               rst 0x30
                           .data:00000e82 1f                               rra
                           .data:00000e83 f7                               rst 0x30
                           .data:00000e84 3d                               dec a
                           .data:00000e85 84                               add a,h
                           .data:00000e86 54                               ld d,h
                           .data:00000e87 81                               add a,c
                           .data:00000e88 22 f7 3d                         ld (0x3df7),hl
                           .data:00000e8b f7                               rst 0x30
                           .data:00000e8c 20 f7                            jr nz,0x0e85
                           .data:00000e8e 3d                               dec a
                           .data:00000e8f 82                               add a,d
                           .data:00000e90 fc 50 84                         call m,0x8450
                           .data:00000e93 50                               ld d,b
                           .data:00000e94 81                               add a,c
                           .data:00000e95 03                               inc bc
                           .data:00000e96 f7                               rst 0x30
                           .data:00000e97 15                               dec d
                           .data:00000e98 f0                               ret p
                           .data:00000e99 b9                               cp c
                           .data:00000e9a fc 83 01                         call m,0x0183
                           .data:00000e9d 02                               ld (bc),a
                           .data:00000e9e f7                               rst 0x30
                           .data:00000e9f 3e b9                            ld a,0xb9
                           .data:00000ea1 fc 8f 01                         call m,0x018f
                           .data:00000ea4 f7                               rst 0x30
                           .data:00000ea5 37                               scf
                           .data:00000ea6 07                               rlca
                           .data:00000ea7 81                               add a,c
                           .data:00000ea8 1f                               rra
                           .data:00000ea9 83                               add a,e
                           .data:00000eaa c1                               pop bc
                           .data:00000eab 84                               add a,h
                           .data:00000eac 01 f7 3c                         ld bc,0x3cf7
                           .data:00000eaf f7                               rst 0x30
                           .data:00000eb0 1f                               rra
                           .data:00000eb1 f7                               rst 0x30
                           .data:00000eb2 1f                               rra
                           .data:00000eb3 f7                               rst 0x30
                           .data:00000eb4 3d                               dec a
                           .data:00000eb5 84                               add a,h
                           .data:00000eb6 54                               ld d,h
                           .data:00000eb7 81                               add a,c
                           .data:00000eb8 22 f7 3d                         ld (0x3df7),hl
                           .data:00000ebb f7                               rst 0x30
                           .data:00000ebc 20 f7                            jr nz,0x0eb5
                           .data:00000ebe 3d                               dec a
                           .data:00000ebf 82                               add a,d
                           .data:00000ec0 fc 50 84                         call m,0x8450
                           .data:00000ec3 50                               ld d,b
                           .data:00000ec4 81                               add a,c
                           .data:00000ec5 03                               inc bc
                           .data:00000ec6 f7                               rst 0x30
                           .data:00000ec7 15                               dec d
                           .data:00000ec8 f0                               ret p
                           .data:00000ec9 b9                               cp c
                           .data:00000eca fc 83 01                         call m,0x0183
                           .data:00000ecd 02                               ld (bc),a
                           .data:00000ece f7                               rst 0x30
                           .data:00000ecf 3e b9                            ld a,0xb9
                           .data:00000ed1 fc 8f 01                         call m,0x018f
                           .data:00000ed4 f7                               rst 0x30
                           .data:00000ed5 37                               scf
                           .data:00000ed6 07                               rlca
                           .data:00000ed7 81                               add a,c
                           .data:00000ed8 1f                               rra
                           .data:00000ed9 83                               add a,e
                           .data:00000eda c1                               pop bc
                           .data:00000edb 84                               add a,h
                           .data:00000edc 01 f7 3c                         ld bc,0x3cf7
                           .data:00000edf f7                               rst 0x30
                           .data:00000ee0 1f                               rra
                           .data:00000ee1 f7                               rst 0x30
                           .data:00000ee2 1f                               rra
                           .data:00000ee3 f7                               rst 0x30
                           .data:00000ee4 3d                               dec a
                           .data:00000ee5 84                               add a,h
                           .data:00000ee6 54                               ld d,h
                           .data:00000ee7 81                               add a,c
                           .data:00000ee8 22 f7 3d                         ld (0x3df7),hl
                           .data:00000eeb f7                               rst 0x30
                           .data:00000eec 20 f7                            jr nz,0x0ee5
                           .data:00000eee 3d                               dec a
                           .data:00000eef 82                               add a,d
                           .data:00000ef0 fc 50 84                         call m,0x8450
                           .data:00000ef3 50                               ld d,b
                           .data:00000ef4 81                               add a,c
                           .data:00000ef5 03                               inc bc
                           .data:00000ef6 f7                               rst 0x30
                           .data:00000ef7 15                               dec d
                           .data:00000ef8 f0                               ret p
                           .data:00000ef9 b9                               cp c
                           .data:00000efa fc 83 01                         call m,0x0183
                           .data:00000efd 02                               ld (bc),a
                           .data:00000efe f7                               rst 0x30
                           .data:00000eff 3e b9                            ld a,0xb9
                           .data:00000f01 fc 8f 01                         call m,0x018f
                           .data:00000f04 f7                               rst 0x30
                           .data:00000f05 37                               scf
                           .data:00000f06 07                               rlca
                           .data:00000f07 81                               add a,c
                           .data:00000f08 1f                               rra
                           .data:00000f09 83                               add a,e
                           .data:00000f0a c1                               pop bc
                           .data:00000f0b 84                               add a,h
                           .data:00000f0c 01 f7 3c                         ld bc,0x3cf7
                           .data:00000f0f f7                               rst 0x30
                           .data:00000f10 1f                               rra
                           .data:00000f11 f7                               rst 0x30
                           .data:00000f12 1f                               rra
                           .data:00000f13 f7                               rst 0x30
                           .data:00000f14 3d                               dec a
                           .data:00000f15 84                               add a,h
                           .data:00000f16 54                               ld d,h
                           .data:00000f17 81                               add a,c
                           .data:00000f18 22 f7 3d                         ld (0x3df7),hl
                           .data:00000f1b f7                               rst 0x30
                           .data:00000f1c 20 f7                            jr nz,0x0f15
                           .data:00000f1e 3d                               dec a
                           .data:00000f1f 82                               add a,d
                           .data:00000f20 fc 50 84                         call m,0x8450
                           .data:00000f23 50                               ld d,b
                           .data:00000f24 81                               add a,c
                           .data:00000f25 03                               inc bc
                           .data:00000f26 f7                               rst 0x30
                           .data:00000f27 15                               dec d
                           .data:00000f28 f0                               ret p
                           .data:00000f29 b9                               cp c
                           .data:00000f2a fc 83 01                         call m,0x0183
                           .data:00000f2d 02                               ld (bc),a
                           .data:00000f2e f7                               rst 0x30
                           .data:00000f2f 3e b9                            ld a,0xb9
                           .data:00000f31 fc 8f 01                         call m,0x018f
                           .data:00000f34 f7                               rst 0x30
                           .data:00000f35 37                               scf
                           .data:00000f36 f7                               rst 0x30
                           .data:00000f37 1f                               rra
                           .data:00000f38 f7                               rst 0x30
                           .data:00000f39 37                               scf
                           .data:00000f3a 84                               add a,h
                           .data:00000f3b 50                               ld d,b
                           .data:00000f3c 24                               inc h
                           .data:00000f3d 50                               ld d,b
                           .data:00000f3e ec 00 50                         call pe,0x5000
                           .data:00000f41 81                               add a,c
                           .data:00000f42 03                               inc bc
                           .data:00000f43 f7                               rst 0x30
                           .data:00000f44 10 ec                            djnz 0x0f32
                           .data:00000f46 00                               nop
                           .data:00000f47 50                               ld d,b
                           .data:00000f48 81                               add a,c
                           .data:00000f49 03                               inc bc
                           .data:00000f4a f0                               ret p
                           .data:00000f4b 01 f0 f7                         ld bc,0xf7f0
                           .data:00000f4e 1e 01                            ld e,0x01
                           .data:00000f50 82                               add a,d
                           .data:00000f51 a2                               and d
                           .data:00000f52 fe 38                            cp 0x38
                           .data:00000f54 3a 38 39                         ld a,(0x3938)
                           .data:00000f57 38 b9                            jr c,0x0f12
                           .data:00000f59 fc 83 01                         call m,0x0183
                           .data:00000f5c 02                               ld (bc),a
                           .data:00000f5d f7                               rst 0x30
                           .data:00000f5e 3e b9                            ld a,0xb9
                           .data:00000f60 fc 8f 01                         call m,0x018f
                           .data:00000f63 f7                               rst 0x30
                           .data:00000f64 37                               scf
                           .data:00000f65 01 82 c1                         ld bc,0xc182
                           .data:00000f68 d1                               pop de
                           .data:00000f69 81                               add a,c
                           .data:00000f6a c2 82 c1                         jp nz,0xc182
                           .data:00000f6d d1                               pop de
                           .data:00000f6e 82                               add a,d
                           .data:00000f6f 02                               ld (bc),a
                           .data:00000f70 d2 11 82                         jp nc,0x8211
                           .data:00000f73 05                               dec b
                           .data:00000f74 d2 83 05                         jp nc,0x0583
                           .data:00000f77 f7                               rst 0x30
                           .data:00000f78 22 81 50                         ld (0x5081),hl
                           .data:00000f7b 01 b9 fc                         ld bc,0xfcb9
                           .data:00000f7e 83                               add a,e
                           .data:00000f7f 01 02 f7                         ld bc,0xf702
                           .data:00000f82 3e b9                            ld a,0xb9
                           .data:00000f84 fc f7 37                         call m,0x37f7
                           .data:00000f87 8f                               adc a,a
                           .data:00000f88 01 02 f7                         ld bc,0xf702
                           .data:00000f8b 31 05 81                         ld sp,0x8105
                           .data:00000f8e c1                               pop bc
                           .data:00000f8f 02                               ld (bc),a
                           .data:00000f90 d2 81 c1                         jp nc,0xc181
                           .data:00000f93 02                               ld (bc),a
                           .data:00000f94 f7                               rst 0x30
                           .data:00000f95 1f                               rra
                           .data:00000f96 84                               add a,h
                           .data:00000f97 54                               ld d,h
                           .data:00000f98 81                               add a,c
                           .data:00000f99 c1                               pop bc
                           .data:00000f9a d2 11 d3                         jp nc,0xd311
                           .data:00000f9d 85                               add a,l
                           .data:00000f9e 25                               dec h
                           .data:00000f9f 3d                               dec a
                           .data:00000fa0 ad                               xor l
                           .data:00000fa1 fc 85 a5                         call m,0xa585
                           .data:00000fa4 10 ad                            djnz 0x0f53
                           .data:00000fa6 fc 85 04                         call m,0x0485
                           .data:00000fa9 22 50 04                         ld (0x0450),hl
                           .data:00000fac ea 00 50                         jp pe,0x5000
                           .data:00000faf 04                               inc b
                           .data:00000fb0 f0                               ret p
                           .data:00000fb1 02                               ld (bc),a
                           .data:00000fb2 f7                               rst 0x30
                           .data:00000fb3 31 05 81                         ld sp,0x8105
                           .data:00000fb6 c1                               pop bc
                           .data:00000fb7 02                               ld (bc),a
                           .data:00000fb8 d2 81 c1                         jp nc,0xc181
                           .data:00000fbb 02                               ld (bc),a
                           .data:00000fbc d2 02 f7                         jp nc,0xf702
                           .data:00000fbf 1f                               rra
                           .data:00000fc0 84                               add a,h
                           .data:00000fc1 54                               ld d,h
                           .data:00000fc2 81                               add a,c
                           .data:00000fc3 c1                               pop bc
                           .data:00000fc4 d2 11 d3                         jp nc,0xd311
                           .data:00000fc7 85                               add a,l
                           .data:00000fc8 25                               dec h
                           .data:00000fc9 3d                               dec a
                           .data:00000fca ad                               xor l
                           .data:00000fcb fc 85 a5                         call m,0xa585
                           .data:00000fce 10 ad                            djnz 0x0f7d
                           .data:00000fd0 fc 85 04                         call m,0x0485
                           .data:00000fd3 22 50 04                         ld (0x0450),hl
                           .data:00000fd6 ea 00 50                         jp pe,0x5000
                           .data:00000fd9 04                               inc b
                           .data:00000fda f0                               ret p
                           .data:00000fdb 04                               inc b
                           .data:00000fdc 83                               add a,e
                           .data:00000fdd 1a                               ld a,(de)
                           .data:00000fde 50                               ld d,b
                           .data:00000fdf 41                               ld b,c
                           .data:00000fe0 5c                               ld e,h
                           .data:00000fe1 82                               add a,d
                           .data:00000fe2 83                               add a,e
                           .data:00000fe3 fc eb ff                         call m,0xffeb
                           .data:00000fe6 50                               ld d,b
                           .data:00000fe7 1a                               ld a,(de)
                           .data:00000fe8 50                               ld d,b
                           .data:00000fe9 49                               ld c,c
                           .data:00000fea 5c                               ld e,h
                           .data:00000feb 57                               ld d,a
                           .data:00000fec 1a                               ld a,(de)
                           .data:00000fed 50                               ld d,b
                           .data:00000fee 3b                               dec sp
                           .data:00000fef 5f                               ld e,a
                           .data:00000ff0 97                               sub a
                           .data:00000ff1 00                               nop
                           .data:00000ff2 49                               ld c,c
                           .data:00000ff3 f0                               ret p
                           .data:00000ff4 81                               add a,c
                           .data:00000ff5 c1                               pop bc
                           .data:00000ff6 03                               inc bc
                           .data:00000ff7 d3 81                            out (0x81),a
                           .data:00000ff9 c1                               pop bc
                           .data:00000ffa 03                               inc bc
                           .data:00000ffb f7                               rst 0x30
                           .data:00000ffc 1f                               rra
                           .data:00000ffd f0                               ret p
                           .data:00000ffe 81                               add a,c
                           .data:00000fff c1                               pop bc
